

Microchip MPLAB XC8 Assembler V2.32 build 20210201212658 
                                                                                               Sun Aug 01 11:36:35 2021

Microchip MPLAB XC8 C Compiler v2.32 (Free license) build 20210201212658 Og1 
     1                           	processor	18F4520
     2                           	fnconf	rparam,??,?,0
     3                           	pagewidth 120
     4                           	opt	flic
     5                           	psect	idataCOMRAM,global,class=CODE,delta=1,noexec
     6                           	psect	idataBANK0,global,class=CODE,delta=1,noexec
     7                           	psect	smallconst,global,reloc=2,class=SMALLCONST,delta=1,noexec
     8                           	psect	cinit,global,reloc=2,class=CODE,delta=1
     9                           	psect	bssCOMRAM,global,class=COMRAM,space=1,delta=1,lowdata,noexec
    10                           	psect	dataCOMRAM,global,class=COMRAM,space=1,delta=1,lowdata,noexec
    11                           	psect	dataBANK0,global,class=BANK0,space=1,delta=1,lowdata,noexec
    12                           	psect	cstackCOMRAM,global,class=COMRAM,space=1,delta=1,lowdata,noexec
    13                           	psect	text0,global,reloc=2,class=CODE,delta=1
    14                           	psect	text1,global,reloc=2,class=CODE,delta=1
    15                           	psect	text2,global,reloc=2,class=CODE,delta=1
    16                           	psect	text3,global,reloc=2,class=CODE,delta=1
    17                           	psect	text4,global,reloc=2,class=CODE,delta=1
    18                           	psect	text5,global,reloc=2,class=CODE,delta=1
    19                           	psect	text6,global,reloc=2,class=CODE,delta=1
    20                           	psect	text7,global,reloc=2,class=CODE,delta=1,group=1
    21                           	psect	text8,global,reloc=2,class=CODE,delta=1
    22                           	psect	text9,global,reloc=2,class=CODE,delta=1,group=1
    23                           	psect	text10,global,reloc=2,class=CODE,delta=1
    24                           	psect	text11,global,reloc=2,class=CODE,delta=1
    25                           	psect	text12,global,reloc=2,class=CODE,delta=1
    26                           	psect	text13,global,reloc=2,class=CODE,delta=1
    27                           	psect	text14,global,reloc=2,class=CODE,delta=1
    28                           	psect	text15,global,reloc=2,class=CODE,delta=1
    29                           	psect	text16,global,reloc=2,class=CODE,delta=1
    30                           	psect	text17,global,reloc=2,class=CODE,delta=1
    31                           	psect	text18,global,reloc=2,class=CODE,delta=1
    32                           	psect	text19,global,reloc=2,class=CODE,delta=1
    33                           	psect	text20,global,reloc=2,class=CODE,delta=1
    34                           	psect	text21,global,reloc=2,class=CODE,delta=1
    35                           	psect	text22,global,reloc=2,class=CODE,delta=1
    36                           	psect	text23,global,reloc=2,class=CODE,delta=1
    37                           	psect	text24,global,reloc=2,class=CODE,delta=1
    38                           	psect	text25,global,reloc=2,class=CODE,delta=1
    39                           	psect	text26,global,reloc=2,class=CODE,delta=1
    40                           	psect	text27,global,reloc=2,class=CODE,delta=1
    41                           	psect	text28,global,reloc=2,class=CODE,delta=1
    42                           	psect	text29,global,reloc=2,class=CODE,delta=1,group=1
    43                           	psect	text30,global,reloc=2,class=CODE,delta=1,group=1
    44                           	psect	text31,global,reloc=2,class=CODE,delta=1,group=1
    45                           	psect	text32,global,reloc=2,class=CODE,delta=1,group=1
    46                           	psect	text33,global,reloc=2,class=CODE,delta=1,group=1
    47                           	psect	intsave_regs,global,class=BIGRAM,space=1,delta=1,noexec
    48                           	psect	rparam,global,class=COMRAM,space=1,delta=1,noexec
    49                           	psect	idloc,global,abs,ovrld,class=IDLOC,space=5,delta=1,noexec
    50                           	psect	config,global,abs,ovrld,class=CONFIG,space=4,delta=1,noexec
    51  0000                     
    52                           ; Version 2.20
    53                           ; Generated 12/02/2020 GMT
    54                           ; 
    55                           ; Copyright © 2020, Microchip Technology Inc. and its subsidiaries ("Microchip")
    56                           ; All rights reserved.
    57                           ; 
    58                           ; This software is developed by Microchip Technology Inc. and its subsidiaries ("Microch
      +                          ip").
    59                           ; 
    60                           ; Redistribution and use in source and binary forms, with or without modification, are
    61                           ; permitted provided that the following conditions are met:
    62                           ; 
    63                           ;     1. Redistributions of source code must retain the above copyright notice, this lis
      +                          t of
    64                           ;        conditions and the following disclaimer.
    65                           ; 
    66                           ;     2. Redistributions in binary form must reproduce the above copyright notice, this 
      +                          list
    67                           ;        of conditions and the following disclaimer in the documentation and/or other
    68                           ;        materials provided with the distribution.
    69                           ; 
    70                           ;     3. Microchip's name may not be used to endorse or promote products derived from th
      +                          is
    71                           ;        software without specific prior written permission.
    72                           ; 
    73                           ; THIS SOFTWARE IS PROVIDED BY MICROCHIP "AS IS" AND ANY EXPRESS OR IMPLIED WARRANTIES,
    74                           ; INCLUDING, BUT NOT LIMITED TO, THE IMPLIED WARRANTIES OF MERCHANTABILITY AND FITNESS F
      +                          OR
    75                           ; PURPOSE ARE DISCLAIMED.  IN NO EVENT SHALL MICROCHIP BE LIABLE FOR ANY DIRECT, INDIREC
      +                          T,
    76                           ; INCIDENTAL, SPECIAL, EXEMPLARY, OR CONSEQUENTIAL DAMAGES (INCLUDING BUT NOT LIMITED TO
    77                           ; PROCUREMENT OF SUBSTITUTE GOODS OR SERVICES; LOSS OF USE, DATA OR PROFITS; OR BUSINESS
    78                           ; INTERRUPTION) HOWSOEVER CAUSED AND ON ANY THEORY OF LIABILITY, WHETHER IN CONTRACT, ST
      +                          RICT
    79                           ; LIABILITY, OR TORT (INCLUDING NEGLIGENCE OR OTHERWISE) ARISING IN ANY WAY OUT OF THE U
      +                          SE OF
    80                           ; THIS SOFTWARE, EVEN IF ADVISED OF THE POSSIBILITY OF SUCH DAMAGE.
    81                           ; 
    82                           ; 
    83                           ; Code-generator required, PIC18F4520 Definitions
    84                           ; 
    85                           ; SFR Addresses
    86  0000                     
    87                           	psect	idataCOMRAM
    88  002184                     __pidataCOMRAM:
    89                           	callstack 0
    90                           
    91                           ;initializer for opcoes@F2444
    92  002184  31                 	db	49
    93  002185  20                 	db	32
    94  002186  2D                 	db	45
    95  002187  20                 	db	32
    96  002188  44                 	db	68
    97  002189  69                 	db	105
    98  00218A  73                 	db	115
    99  00218B  6E                 	db	110
   100  00218C  65                 	db	101
   101  00218D  79                 	db	121
   102                           
   103                           ;initializer for opcoes@F2446
   104  00218E  32                 	db	50
   105  00218F  20                 	db	32
   106  002190  2D                 	db	45
   107  002191  20                 	db	32
   108  002192  50                 	db	80
   109  002193  61                 	db	97
   110  002194  72                 	db	114
   111  002195  69                 	db	105
   112  002196  73                 	db	115
   113                           
   114                           	psect	idataBANK0
   115  001C16                     __pidataBANK0:
   116                           	callstack 0
   117                           
   118                           ;initializer for main@F2474
   119  001C16  4F                 	db	79
   120  001C17  62                 	db	98
   121  001C18  72                 	db	114
   122  001C19  69                 	db	105
   123  001C1A  67                 	db	103
   124  001C1B  61                 	db	97
   125  001C1C  64                 	db	100
   126  001C1D  6F                 	db	111
   127  001C1E  20                 	db	32
   128  001C1F  50                 	db	80
   129  001C20  72                 	db	114
   130  001C21  6F                 	db	111
   131  001C22  66                 	db	102
   132  001C23  00                 	db	0
   133  001C24  00                 	db	0
   134  001C25  00                 	db	0
   135                           
   136                           ;initializer for main@F2472
   137  001C26  56                 	db	86
   138  001C27  6F                 	db	111
   139  001C28  63                 	db	99
   140  001C29  65                 	db	101
   141  001C2A  20                 	db	32
   142  001C2B  4E                 	db	78
   143  001C2C  61                 	db	97
   144  001C2D  6F                 	db	111
   145  001C2E  20                 	db	32
   146  001C2F  65                 	db	101
   147  001C30  20                 	db	32
   148  001C31  42                 	db	66
   149  001C32  72                 	db	114
   150  001C33  75                 	db	117
   151  001C34  78                 	db	120
   152  001C35  6F                 	db	111
   153                           
   154                           ;initializer for paradaEmergencial@F2468
   155  001C36  50                 	db	80
   156  001C37  4F                 	db	79
   157  001C38  55                 	db	85
   158  001C39  53                 	db	83
   159  001C3A  4F                 	db	79
   160  001C3B  20                 	db	32
   161  001C3C  45                 	db	69
   162  001C3D  4D                 	db	77
   163  001C3E  45                 	db	69
   164  001C3F  52                 	db	82
   165  001C40  47                 	db	71
   166  001C41  45                 	db	69
   167  001C42  4E                 	db	78
   168  001C43  43                 	db	67
   169  001C44  49                 	db	73
   170  001C45  41                 	db	65
   171                           
   172                           ;initializer for introducao@F2439
   173  001C46  4F                 	db	79
   174  001C47  74                 	db	116
   175  001C48  68                 	db	104
   176  001C49  6F                 	db	111
   177  001C4A  6E                 	db	110
   178  001C4B  20                 	db	32
   179  001C4C  43                 	db	67
   180  001C4D  49                 	db	73
   181  001C4E  41                 	db	65
   182  001C4F  20                 	db	32
   183  001C50  56                 	db	86
   184  001C51  6F                 	db	111
   185  001C52  6F                 	db	111
   186  001C53  00                 	db	0
   187  001C54  00                 	db	0
   188  001C55  00                 	db	0
   189                           
   190                           ;initializer for opcoes@F2442
   191  001C56  45                 	db	69
   192  001C57  73                 	db	115
   193  001C58  63                 	db	99
   194  001C59  6F                 	db	111
   195  001C5A  6C                 	db	108
   196  001C5B  68                 	db	104
   197  001C5C  61                 	db	97
   198  001C5D  20                 	db	32
   199  001C5E  75                 	db	117
   200  001C5F  6D                 	db	109
   201  001C60  20                 	db	32
   202  001C61  76                 	db	118
   203  001C62  6F                 	db	111
   204  001C63  6F                 	db	111
   205  001C64  3A                 	db	58
   206                           
   207                           ;initializer for opcoes@F2448
   208  001C65  33                 	db	51
   209  001C66  20                 	db	32
   210  001C67  2D                 	db	45
   211  001C68  20                 	db	32
   212  001C69  48                 	db	72
   213  001C6A  6F                 	db	111
   214  001C6B  67                 	db	103
   215  001C6C  77                 	db	119
   216  001C6D  61                 	db	97
   217  001C6E  72                 	db	114
   218  001C6F  74                 	db	116
   219  001C70  73                 	db	115
   220                           
   221                           ;initializer for introducao@F2437
   222  001C71  42                 	db	66
   223  001C72  65                 	db	101
   224  001C73  6D                 	db	109
   225  001C74  20                 	db	32
   226  001C75  56                 	db	86
   227  001C76  69                 	db	105
   228  001C77  6E                 	db	110
   229  001C78  64                 	db	100
   230  001C79  6F                 	db	111
   231  001C7A  20                 	db	32
   232  001C7B  61                 	db	97
   233  001C7C  6F                 	db	111
   234                           
   235                           ;initializer for terminandoViajem@F2454
   236  001C7D  56                 	db	86
   237  001C7E  6F                 	db	111
   238  001C7F  63                 	db	99
   239  001C80  65                 	db	101
   240  001C81  20                 	db	32
   241  001C82  43                 	db	67
   242  001C83  68                 	db	104
   243  001C84  65                 	db	101
   244  001C85  67                 	db	103
   245  001C86  6F                 	db	111
   246  001C87  75                 	db	117
   247                           
   248                           ;initializer for iniciandoViajem@F2451
   249  001C88  56                 	db	86
   250  001C89  69                 	db	105
   251  001C8A  61                 	db	97
   252  001C8B  6A                 	db	106
   253  001C8C  61                 	db	97
   254  001C8D  6E                 	db	110
   255  001C8E  64                 	db	100
   256  001C8F  6F                 	db	111
   257  001C90  2E                 	db	46
   258  001C91  2E                 	db	46
   259  001C92  2E                 	db	46
   260                           
   261                           	psect	smallconst
   262  000600                     __psmallconst:
   263                           	callstack 0
   264  000600  00                 	db	0
   265  000601                     _valor@ssd$F439:
   266                           	callstack 0
   267  000601  3F                 	db	63
   268  000602  06                 	db	6
   269  000603  5B                 	db	91
   270  000604  4F                 	db	79
   271  000605  66                 	db	102
   272  000606  6D                 	db	109
   273  000607  7D                 	db	125
   274  000608  07                 	db	7
   275  000609  7F                 	db	127
   276  00060A  6F                 	db	111
   277  00060B  77                 	db	119
   278  00060C  7C                 	db	124
   279  00060D  39                 	db	57
   280  00060E  5E                 	db	94
   281  00060F  79                 	db	121
   282  000610  71                 	db	113
   283  000611                     __end_of_valor@ssd$F439:
   284                           	callstack 0
   285  0000                     _T2CON	set	4042
   286  0000                     _CCP1CON	set	4029
   287  0000                     _CCPR1L	set	4030
   288  0000                     _PR2	set	4043
   289  0000                     _PORTEbits	set	3972
   290  0000                     _TRISE	set	3990
   291  0000                     _TRISD	set	3989
   292  0000                     _TRISC	set	3988
   293  0000                     _TRISB	set	3987
   294  0000                     _TRISA	set	3986
   295  0000                     _PORTE	set	3972
   296  0000                     _PORTD	set	3971
   297  0000                     _PORTC	set	3970
   298  0000                     _PORTB	set	3969
   299  0000                     _PORTA	set	3968
   300  000611  00                 	db	0	; dummy byte at the end
   301  0000                     
   302                           ; #config settings
   303                           
   304                           	psect	cinit
   305  001F10                     __pcinit:
   306                           	callstack 0
   307  001F10                     start_initialization:
   308                           	callstack 0
   309  001F10                     __initialization:
   310                           	callstack 0
   311                           
   312                           ; Initialize objects allocated to BANK0 (125 bytes)
   313                           ; load TBLPTR registers with __pidataBANK0
   314  001F10  0E16               	movlw	low __pidataBANK0
   315  001F12  6EF6               	movwf	tblptrl,c
   316  001F14  0E1C               	movlw	high __pidataBANK0
   317  001F16  6EF7               	movwf	tblptrh,c
   318  001F18  0E00               	movlw	low (__pidataBANK0 shr (0+16))
   319  001F1A  6EF8               	movwf	tblptru,c
   320  001F1C  EE00  F080         	lfsr	0,__pdataBANK0
   321  001F20  EE10 F07D          	lfsr	1,125
   322  001F24                     copy_data0:
   323  001F24  0009               	tblrd		*+
   324  001F26  CFF5 FFEE          	movff	tablat,postinc0
   325  001F2A  50E5               	movf	postdec1,w,c
   326  001F2C  50E1               	movf	fsr1l,w,c
   327  001F2E  E1FA               	bnz	copy_data0
   328                           
   329                           ; Initialize objects allocated to COMRAM (19 bytes)
   330                           ; load TBLPTR registers with __pidataCOMRAM
   331  001F30  0E84               	movlw	low __pidataCOMRAM
   332  001F32  6EF6               	movwf	tblptrl,c
   333  001F34  0E21               	movlw	high __pidataCOMRAM
   334  001F36  6EF7               	movwf	tblptrh,c
   335  001F38  0E00               	movlw	low (__pidataCOMRAM shr (0+16))
   336  001F3A  6EF8               	movwf	tblptru,c
   337  001F3C  EE00  F059         	lfsr	0,__pdataCOMRAM
   338  001F40  EE10 F013          	lfsr	1,19
   339  001F44                     copy_data1:
   340  001F44  0009               	tblrd		*+
   341  001F46  CFF5 FFEE          	movff	tablat,postinc0
   342  001F4A  50E5               	movf	postdec1,w,c
   343  001F4C  50E1               	movf	fsr1l,w,c
   344  001F4E  E1FA               	bnz	copy_data1
   345                           
   346                           ; Clear objects allocated to COMRAM (13 bytes)
   347  001F50  EE00  F06C         	lfsr	0,__pbssCOMRAM
   348  001F54  0E0D               	movlw	13
   349  001F56                     clear_0:
   350  001F56  6AEE               	clrf	postinc0,c
   351  001F58  06E8               	decf	wreg,f,c
   352  001F5A  E1FD               	bnz	clear_0
   353  001F5C                     end_of_initialization:
   354                           	callstack 0
   355  001F5C                     __end_of__initialization:
   356                           	callstack 0
   357  001F5C  0E00               	movlw	low (__Lmediumconst shr (0+16))
   358  001F5E  6EF8               	movwf	tblptru,c
   359  001F60  0100               	movlb	0
   360  001F62  EFA3  F008         	goto	_main	;jump to C main() function
   361                           
   362                           	psect	bssCOMRAM
   363  00006C                     __pbssCOMRAM:
   364                           	callstack 0
   365  00006C                     kpDebounce@valorAntigo:
   366                           	callstack 0
   367  00006C                     	ds	2
   368  00006E                     kpDebounce@valorNovo:
   369                           	callstack 0
   370  00006E                     	ds	2
   371  000070                     _valor:
   372                           	callstack 0
   373  000070                     	ds	2
   374  000072                     _v3:
   375                           	callstack 0
   376  000072                     	ds	1
   377  000073                     _v2:
   378                           	callstack 0
   379  000073                     	ds	1
   380  000074                     _v1:
   381                           	callstack 0
   382  000074                     	ds	1
   383  000075                     _v0:
   384                           	callstack 0
   385  000075                     	ds	1
   386  000076                     _display:
   387                           	callstack 0
   388  000076                     	ds	1
   389  000077                     kpDebounce@tempo:
   390                           	callstack 0
   391  000077                     	ds	1
   392  000078                     _i:
   393                           	callstack 0
   394  000078                     	ds	1
   395                           
   396                           	psect	dataCOMRAM
   397  000059                     __pdataCOMRAM:
   398                           	callstack 0
   399  000059                     opcoes@F2444:
   400                           	callstack 0
   401  000059                     	ds	10
   402  000063                     opcoes@F2446:
   403                           	callstack 0
   404  000063                     	ds	9
   405                           
   406                           	psect	dataBANK0
   407  000080                     __pdataBANK0:
   408                           	callstack 0
   409  000080                     main@F2474:
   410                           	callstack 0
   411  000080                     	ds	16
   412  000090                     main@F2472:
   413                           	callstack 0
   414  000090                     	ds	16
   415  0000A0                     paradaEmergencial@F2468:
   416                           	callstack 0
   417  0000A0                     	ds	16
   418  0000B0                     introducao@F2439:
   419                           	callstack 0
   420  0000B0                     	ds	16
   421  0000C0                     opcoes@F2442:
   422                           	callstack 0
   423  0000C0                     	ds	15
   424  0000CF                     opcoes@F2448:
   425                           	callstack 0
   426  0000CF                     	ds	12
   427  0000DB                     introducao@F2437:
   428                           	callstack 0
   429  0000DB                     	ds	12
   430  0000E7                     terminandoViajem@F2454:
   431                           	callstack 0
   432  0000E7                     	ds	11
   433  0000F2                     iniciandoViajem@F2451:
   434                           	callstack 0
   435  0000F2                     	ds	11
   436                           
   437                           	psect	cstackCOMRAM
   438  000001                     __pcstackCOMRAM:
   439                           	callstack 0
   440  000001                     ??_kpDebounce:
   441  000001                     ?_kpRead:
   442                           	callstack 0
   443  000001                     ?___wmul:
   444                           	callstack 0
   445  000001                     ?___awdiv:
   446                           	callstack 0
   447  000001                     ?___awmod:
   448                           	callstack 0
   449  000001                     ?___lwdiv:
   450                           	callstack 0
   451  000001                     ?___fladd:
   452                           	callstack 0
   453  000001                     ?___aldiv:
   454                           	callstack 0
   455  000001                     Delay40us@i:
   456                           	callstack 0
   457  000001                     delay@i:
   458                           	callstack 0
   459  000001                     digitalWrite@pin:
   460                           	callstack 0
   461  000001                     pinMode@pin:
   462                           	callstack 0
   463  000001                     ___wmul@multiplier:
   464                           	callstack 0
   465  000001                     ___awdiv@dividend:
   466                           	callstack 0
   467  000001                     ___awmod@dividend:
   468                           	callstack 0
   469  000001                     ___lwdiv@dividend:
   470                           	callstack 0
   471  000001                     ___aldiv@dividend:
   472                           	callstack 0
   473  000001                     ___flge@ff1:
   474                           	callstack 0
   475  000001                     ___fladd@b:
   476                           	callstack 0
   477                           
   478                           ; 4 bytes @ 0x0
   479  000001                     	ds	1
   480  000002                     Delay2ms@i:
   481                           	callstack 0
   482  000002                     delay@j:
   483                           	callstack 0
   484                           
   485                           ; 1 bytes @ 0x1
   486  000002                     	ds	1
   487  000003                     verso@k:
   488                           	callstack 0
   489  000003                     inverso@k:
   490                           	callstack 0
   491  000003                     digitalWrite@value:
   492                           	callstack 0
   493  000003                     pinMode@type:
   494                           	callstack 0
   495  000003                     ___wmul@multiplicand:
   496                           	callstack 0
   497  000003                     ___awdiv@divisor:
   498                           	callstack 0
   499  000003                     ___awmod@divisor:
   500                           	callstack 0
   501  000003                     ___lwdiv@divisor:
   502                           	callstack 0
   503                           
   504                           ; 2 bytes @ 0x2
   505  000003                     	ds	1
   506  000004                     verso@x:
   507                           	callstack 0
   508  000004                     inverso@x:
   509                           	callstack 0
   510                           
   511                           ; 1 bytes @ 0x3
   512  000004                     	ds	1
   513  000005                     ??_digitalWrite:
   514  000005                     ??_pinMode:
   515  000005                     ___awdiv@counter:
   516                           	callstack 0
   517  000005                     ___awmod@counter:
   518                           	callstack 0
   519  000005                     ___wmul@product:
   520                           	callstack 0
   521  000005                     ___lwdiv@quotient:
   522                           	callstack 0
   523  000005                     ___aldiv@divisor:
   524                           	callstack 0
   525  000005                     ___flge@ff2:
   526                           	callstack 0
   527  000005                     ___fladd@a:
   528                           	callstack 0
   529                           
   530                           ; 4 bytes @ 0x4
   531  000005                     	ds	1
   532  000006                     kpDebounce@old_D:
   533                           	callstack 0
   534  000006                     ___awdiv@sign:
   535                           	callstack 0
   536  000006                     ___awmod@sign:
   537                           	callstack 0
   538                           
   539                           ; 1 bytes @ 0x5
   540  000006                     	ds	1
   541  000007                     ??_ssdUpdate:
   542  000007                     lcdCommand@old_D:
   543                           	callstack 0
   544  000007                     lcdData@valor:
   545                           	callstack 0
   546  000007                     ___lwdiv@counter:
   547                           	callstack 0
   548  000007                     kpDebounce@k:
   549                           	callstack 0
   550  000007                     ___awdiv@quotient:
   551                           	callstack 0
   552                           
   553                           ; 2 bytes @ 0x6
   554  000007                     	ds	1
   555  000008                     ??_pwmSet:
   556  000008                     lcdCommand@cmd:
   557                           	callstack 0
   558  000008                     lcdData@old_D:
   559                           	callstack 0
   560                           
   561                           ; 1 bytes @ 0x7
   562  000008                     	ds	1
   563  000009                     ??___fladd:
   564  000009                     ??___flge:
   565  000009                     kpDebounce@j:
   566                           	callstack 0
   567  000009                     ssdDigit@pos:
   568                           	callstack 0
   569  000009                     ___aldiv@counter:
   570                           	callstack 0
   571  000009                     shift@t:
   572                           	callstack 0
   573  000009                     iniciandoViajem@text:
   574                           	callstack 0
   575  000009                     terminandoViajem@text:
   576                           	callstack 0
   577  000009                     opcoes@text:
   578                           	callstack 0
   579                           
   580                           ; 15 bytes @ 0x8
   581  000009                     	ds	1
   582  00000A                     kpDebounce@i:
   583                           	callstack 0
   584  00000A                     pwmSet@porcento:
   585                           	callstack 0
   586  00000A                     ssdDigit@val:
   587                           	callstack 0
   588  00000A                     ___aldiv@sign:
   589                           	callstack 0
   590                           
   591                           ; 1 bytes @ 0x9
   592  00000A                     	ds	1
   593  00000B                     shift@op:
   594                           	callstack 0
   595  00000B                     pwmSet@val:
   596                           	callstack 0
   597  00000B                     ___aldiv@quotient:
   598                           	callstack 0
   599                           
   600                           ; 4 bytes @ 0xA
   601  00000B                     	ds	2
   602  00000D                     ___fladd@signs:
   603                           	callstack 0
   604  00000D                     introducao@text2:
   605                           	callstack 0
   606                           
   607                           ; 16 bytes @ 0xC
   608  00000D                     	ds	1
   609  00000E                     ___fladd@aexp:
   610                           	callstack 0
   611                           
   612                           ; 1 bytes @ 0xD
   613  00000E                     	ds	1
   614  00000F                     ___fladd@bexp:
   615                           	callstack 0
   616  00000F                     pwmFrequency@freq:
   617                           	callstack 0
   618                           
   619                           ; 2 bytes @ 0xE
   620  00000F                     	ds	1
   621  000010                     ___fladd@grs:
   622                           	callstack 0
   623                           
   624                           ; 1 bytes @ 0xF
   625  000010                     	ds	1
   626  000011                     cronometro@temp:
   627                           	callstack 0
   628  000011                     paradaEmergencial@text:
   629                           	callstack 0
   630                           
   631                           ; 16 bytes @ 0x10
   632  000011                     	ds	2
   633  000013                     ??_cronometro:
   634                           
   635                           ; 1 bytes @ 0x12
   636  000013                     	ds	1
   637  000014                     cronometro@aux:
   638                           	callstack 0
   639                           
   640                           ; 2 bytes @ 0x13
   641  000014                     	ds	2
   642  000016                     cronometro@tempo:
   643                           	callstack 0
   644                           
   645                           ; 4 bytes @ 0x15
   646  000016                     	ds	2
   647  000018                     opcoes@text3:
   648                           	callstack 0
   649                           
   650                           ; 12 bytes @ 0x17
   651  000018                     	ds	2
   652  00001A                     cronometro@cont:
   653                           	callstack 0
   654                           
   655                           ; 2 bytes @ 0x19
   656  00001A                     	ds	3
   657  00001D                     introducao@text:
   658                           	callstack 0
   659                           
   660                           ; 12 bytes @ 0x1C
   661  00001D                     	ds	7
   662  000024                     opcoes@text1:
   663                           	callstack 0
   664                           
   665                           ; 10 bytes @ 0x23
   666  000024                     	ds	10
   667  00002E                     opcoes@text2:
   668                           	callstack 0
   669                           
   670                           ; 9 bytes @ 0x2D
   671  00002E                     	ds	9
   672  000037                     main@text:
   673                           	callstack 0
   674                           
   675                           ; 16 bytes @ 0x36
   676  000037                     	ds	16
   677  000047                     main@fim:
   678                           	callstack 0
   679                           
   680                           ; 16 bytes @ 0x46
   681  000047                     	ds	16
   682  000057                     main@tecla:
   683                           	callstack 0
   684                           
   685                           ; 2 bytes @ 0x56
   686  000057                     	ds	2
   687                           
   688 ;;
   689 ;;Main: autosize = 0, tempsize = 0, incstack = 0, save=0
   690 ;;
   691 ;; *************** function _main *****************
   692 ;; Defined at:
   693 ;;		line 201 in file "main.c"
   694 ;; Parameters:    Size  Location     Type
   695 ;;		None
   696 ;; Auto vars:     Size  Location     Type
   697 ;;  fim            16   70[COMRAM] unsigned char [16]
   698 ;;  text           16   54[COMRAM] unsigned char [16]
   699 ;;  tecla           2   86[COMRAM] unsigned int 
   700 ;; Return value:  Size  Location     Type
   701 ;;                  1    wreg      void 
   702 ;; Registers used:
   703 ;;		wreg, fsr1l, fsr1h, fsr2l, fsr2h, status,2, status,0, tblptrl, tblptrh, tblptru, prodl, prodh, cstack
   704 ;; Tracked objects:
   705 ;;		On entry : 0/0
   706 ;;		On exit  : 0/0
   707 ;;		Unchanged: 0/0
   708 ;; Data sizes:     COMRAM   BANK0   BANK1   BANK2   BANK3   BANK4   BANK5
   709 ;;      Params:         0       0       0       0       0       0       0
   710 ;;      Locals:        34       0       0       0       0       0       0
   711 ;;      Temps:          0       0       0       0       0       0       0
   712 ;;      Totals:        34       0       0       0       0       0       0
   713 ;;Total ram usage:       34 bytes
   714 ;; Hardware stack levels required when called: 5
   715 ;; This function calls:
   716 ;;		_cronometro
   717 ;;		_iniciandoViajem
   718 ;;		_introducao
   719 ;;		_kpDebounce
   720 ;;		_kpInit
   721 ;;		_kpRead
   722 ;;		_lcdCommand
   723 ;;		_lcdData
   724 ;;		_lcdInit
   725 ;;		_opcoes
   726 ;;		_paradaEmergencial
   727 ;;		_pwmInit
   728 ;;		_ssdInit
   729 ;;		_terminandoViajem
   730 ;; This function is called by:
   731 ;;		Startup code after reset
   732 ;; This function uses a non-reentrant model
   733 ;;
   734                           
   735                           	psect	text0
   736  001146                     __ptext0:
   737                           	callstack 0
   738  001146                     _main:
   739                           	callstack 26
   740  001146                     
   741                           ;main.c: 202:     unsigned int tecla = 16;
   742  001146  0E00               	movlw	0
   743  001148  6E58               	movwf	(main@tecla+1)^0,c
   744  00114A  0E10               	movlw	16
   745  00114C  6E57               	movwf	main@tecla^0,c
   746  00114E                     
   747                           ;main.c: 205:     ssdInit();
   748  00114E  ECB3  F00F         	call	_ssdInit	;wreg free
   749  001152                     
   750                           ;main.c: 206:     lcdInit();
   751  001152  EC4A  F00E         	call	_lcdInit	;wreg free
   752  001156                     
   753                           ;main.c: 207:     kpInit();
   754  001156  ECD1  F010         	call	_kpInit	;wreg free
   755  00115A                     
   756                           ;main.c: 208:     pwmInit();
   757  00115A  ECA9  F010         	call	_pwmInit	;wreg free
   758  00115E                     
   759                           ;main.c: 209:     lcdCommand(0x0F);
   760  00115E  0E0F               	movlw	15
   761  001160  ECCC  F00D         	call	_lcdCommand
   762  001164                     
   763                           ;main.c: 211:     introducao();
   764  001164  ECCD  F00C         	call	_introducao	;wreg free
   765  001168                     
   766                           ;main.c: 213:     opcoes();
   767  001168  ECCF  F00A         	call	_opcoes	;wreg free
   768  00116C                     l3212:
   769                           
   770                           ;main.c: 216:         kpDebounce();
   771  00116C  EC6A  F009         	call	_kpDebounce	;wreg free
   772  001170                     
   773                           ;main.c: 217:         if (kpRead() != tecla) {
   774  001170  ECCC  F010         	call	_kpRead	;wreg free
   775  001174  5057               	movf	main@tecla^0,w,c
   776  001176  1801               	xorwf	?_kpRead^0,w,c
   777  001178  E109               	bnz	u3300
   778  00117A  5058               	movf	(main@tecla+1)^0,w,c
   779  00117C  1802               	xorwf	(?_kpRead+1)^0,w,c
   780  00117E  B4D8               	btfsc	status,2,c
   781  001180  EFC4  F008         	goto	u3301
   782  001184  EFC6  F008         	goto	u3300
   783  001188                     u3301:
   784  001188  EFB6  F008         	goto	l3212
   785  00118C                     u3300:
   786  00118C                     
   787                           ;main.c: 218:             tecla = kpRead();
   788  00118C  ECCC  F010         	call	_kpRead	;wreg free
   789  001190  C001  F057         	movff	?_kpRead,main@tecla
   790  001194  C002  F058         	movff	?_kpRead+1,main@tecla+1
   791  001198                     
   792                           ;main.c: 219:             if (((tecla) & (1<<(3)))) {
   793  001198  A657               	btfss	main@tecla^0,3,c
   794  00119A  EFD1  F008         	goto	u3311
   795  00119E  EFD3  F008         	goto	u3310
   796  0011A2                     u3311:
   797  0011A2  EFE0  F008         	goto	l3228
   798  0011A6                     u3310:
   799  0011A6                     
   800                           ;main.c: 220:                 lcdCommand(0x01);
   801  0011A6  0E01               	movlw	1
   802  0011A8  ECCC  F00D         	call	_lcdCommand
   803  0011AC                     
   804                           ;main.c: 221:                 iniciandoViajem();
   805  0011AC  EC08  F010         	call	_iniciandoViajem	;wreg free
   806  0011B0                     
   807                           ;main.c: 223:                 cronometro(30);
   808  0011B0  0E00               	movlw	0
   809  0011B2  6E12               	movwf	(cronometro@temp+1)^0,c
   810  0011B4  0E1E               	movlw	30
   811  0011B6  6E11               	movwf	cronometro@temp^0,c
   812  0011B8  ECB7  F007         	call	_cronometro	;wreg free
   813  0011BC                     
   814                           ;main.c: 224:                 terminandoViajem();
   815  0011BC  EC2C  F00F         	call	_terminandoViajem	;wreg free
   816  0011C0                     l3228:
   817                           
   818                           ;main.c: 226:             if (((tecla) & (1<<(7)))) {
   819  0011C0  AE57               	btfss	main@tecla^0,7,c
   820  0011C2  EFE5  F008         	goto	u3321
   821  0011C6  EFE7  F008         	goto	u3320
   822  0011CA                     u3321:
   823  0011CA  EFFE  F008         	goto	l3244
   824  0011CE                     u3320:
   825  0011CE                     
   826                           ;main.c: 227:                 lcdCommand(0x01);
   827  0011CE  0E01               	movlw	1
   828  0011D0  ECCC  F00D         	call	_lcdCommand
   829  0011D4                     
   830                           ;main.c: 228:                 iniciandoViajem();
   831  0011D4  EC08  F010         	call	_iniciandoViajem	;wreg free
   832  0011D8                     
   833                           ;main.c: 230:                 cronometro(10);
   834  0011D8  0E00               	movlw	0
   835  0011DA  6E12               	movwf	(cronometro@temp+1)^0,c
   836  0011DC  0E0A               	movlw	10
   837  0011DE  6E11               	movwf	cronometro@temp^0,c
   838  0011E0  ECB7  F007         	call	_cronometro	;wreg free
   839  0011E4                     
   840                           ;main.c: 231:                 paradaEmergencial();
   841  0011E4  EC7D  F00D         	call	_paradaEmergencial	;wreg free
   842  0011E8                     
   843                           ;main.c: 232:                 iniciandoViajem();
   844  0011E8  EC08  F010         	call	_iniciandoViajem	;wreg free
   845  0011EC                     
   846                           ;main.c: 233:                 cronometro(10);
   847  0011EC  0E00               	movlw	0
   848  0011EE  6E12               	movwf	(cronometro@temp+1)^0,c
   849  0011F0  0E0A               	movlw	10
   850  0011F2  6E11               	movwf	cronometro@temp^0,c
   851  0011F4  ECB7  F007         	call	_cronometro	;wreg free
   852  0011F8                     
   853                           ;main.c: 234:                 terminandoViajem();
   854  0011F8  EC2C  F00F         	call	_terminandoViajem	;wreg free
   855  0011FC                     l3244:
   856                           
   857                           ;main.c: 236:             if (((tecla) & (1<<(11)))) {
   858  0011FC  A658               	btfss	(main@tecla+1)^0,3,c
   859  0011FE  EF03  F009         	goto	u3331
   860  001202  EF05  F009         	goto	u3330
   861  001206                     u3331:
   862  001206  EF2C  F009         	goto	l261
   863  00120A                     u3330:
   864  00120A                     
   865                           ;main.c: 237:                 lcdCommand(0x01);
   866  00120A  0E01               	movlw	1
   867  00120C  ECCC  F00D         	call	_lcdCommand
   868  001210                     
   869                           ;main.c: 238:                 char text[16] = "Voce Nao e Bruxo";
   870  001210  EE20  F090         	lfsr	2,main@F2472
   871  001214  EE10  F037         	lfsr	1,main@text
   872  001218  0E0F               	movlw	15
   873  00121A                     u3341:
   874  00121A  CFDB FFE3          	movff	plusw2,plusw1
   875  00121E  06E8               	decf	wreg,f,c
   876  001220  E2FC               	bc	u3341
   877  001222                     
   878                           ;main.c: 239:                 lcdCommand(0x80 | (0));
   879  001222  0E80               	movlw	128
   880  001224  ECCC  F00D         	call	_lcdCommand
   881  001228                     
   882                           ;main.c: 240:                 for (i = 0; i < 16; i++) {
   883  001228  0E00               	movlw	0
   884  00122A  6E78               	movwf	_i^0,c
   885  00122C                     l3254:
   886  00122C  0E0F               	movlw	15
   887  00122E  6478               	cpfsgt	_i^0,c
   888  001230  EF1C  F009         	goto	u3351
   889  001234  EF1E  F009         	goto	u3350
   890  001238                     u3351:
   891  001238  EF20  F009         	goto	l3258
   892  00123C                     u3350:
   893  00123C  EF2C  F009         	goto	l261
   894  001240                     l3258:
   895                           
   896                           ;main.c: 241:                     lcdData(text[i]);
   897  001240  0E37               	movlw	low main@text
   898  001242  2478               	addwf	_i^0,w,c
   899  001244  6ED9               	movwf	fsr2l,c
   900  001246  6ADA               	clrf	fsr2h,c
   901  001248  0E00               	movlw	high main@text
   902  00124A  22DA               	addwfc	fsr2h,f,c
   903  00124C  50DF               	movf	indf2,w,c
   904  00124E  ECDE  F00F         	call	_lcdData
   905  001252                     
   906                           ;main.c: 242:                 }
   907  001252  2A78               	incf	_i^0,f,c
   908  001254  EF16  F009         	goto	l3254
   909  001258                     l261:
   910                           
   911                           ;main.c: 244:             if (((tecla) & (1<<(8)))) {
   912  001258  A058               	btfss	(main@tecla+1)^0,0,c
   913  00125A  EF31  F009         	goto	u3361
   914  00125E  EF33  F009         	goto	u3360
   915  001262                     u3361:
   916  001262  EF3A  F009         	goto	l3270
   917  001266                     u3360:
   918  001266                     
   919                           ;main.c: 245:                 lcdCommand(0x01);
   920  001266  0E01               	movlw	1
   921  001268  ECCC  F00D         	call	_lcdCommand
   922  00126C                     
   923                           ;main.c: 246:                 introducao();
   924  00126C  ECCD  F00C         	call	_introducao	;wreg free
   925  001270                     
   926                           ;main.c: 247:                 opcoes();
   927  001270  ECCF  F00A         	call	_opcoes	;wreg free
   928  001274                     l3270:
   929                           
   930                           ;main.c: 249:             if (((tecla) & (1<<(0)))) {
   931  001274  A057               	btfss	main@tecla^0,0,c
   932  001276  EF3F  F009         	goto	u3371
   933  00127A  EF41  F009         	goto	u3370
   934  00127E                     u3371:
   935  00127E  EFB6  F008         	goto	l3212
   936  001282                     u3370:
   937  001282                     
   938                           ;main.c: 250:                 lcdCommand(0x01);
   939  001282  0E01               	movlw	1
   940  001284  ECCC  F00D         	call	_lcdCommand
   941  001288                     
   942                           ;main.c: 251:                 char fim[16] = "Obrigado Prof";
   943  001288  EE20  F080         	lfsr	2,main@F2474
   944  00128C  EE10  F047         	lfsr	1,main@fim
   945  001290  0E0F               	movlw	15
   946  001292                     u3381:
   947  001292  CFDB FFE3          	movff	plusw2,plusw1
   948  001296  06E8               	decf	wreg,f,c
   949  001298  E2FC               	bc	u3381
   950  00129A                     
   951                           ;main.c: 252:                 lcdCommand(0x80 | (0));
   952  00129A  0E80               	movlw	128
   953  00129C  ECCC  F00D         	call	_lcdCommand
   954  0012A0                     
   955                           ;main.c: 253:                 for (i = 0; i < 16; i++) {
   956  0012A0  0E00               	movlw	0
   957  0012A2  6E78               	movwf	_i^0,c
   958  0012A4                     l3280:
   959  0012A4  0E0F               	movlw	15
   960  0012A6  6478               	cpfsgt	_i^0,c
   961  0012A8  EF58  F009         	goto	u3391
   962  0012AC  EF5A  F009         	goto	u3390
   963  0012B0                     u3391:
   964  0012B0  EF5C  F009         	goto	l3284
   965  0012B4                     u3390:
   966  0012B4  EFB6  F008         	goto	l3212
   967  0012B8                     l3284:
   968                           
   969                           ;main.c: 254:                     lcdData(fim[i]);
   970  0012B8  0E47               	movlw	low main@fim
   971  0012BA  2478               	addwf	_i^0,w,c
   972  0012BC  6ED9               	movwf	fsr2l,c
   973  0012BE  6ADA               	clrf	fsr2h,c
   974  0012C0  0E00               	movlw	high main@fim
   975  0012C2  22DA               	addwfc	fsr2h,f,c
   976  0012C4  50DF               	movf	indf2,w,c
   977  0012C6  ECDE  F00F         	call	_lcdData
   978  0012CA                     
   979                           ;main.c: 255:                 }
   980  0012CA  2A78               	incf	_i^0,f,c
   981  0012CC  EF52  F009         	goto	l3280
   982  0012D0  EF00  F000         	goto	start
   983  0012D4                     __end_of_main:
   984                           	callstack 0
   985                           
   986 ;; *************** function _terminandoViajem *****************
   987 ;; Defined at:
   988 ;;		line 114 in file "main.c"
   989 ;; Parameters:    Size  Location     Type
   990 ;;		None
   991 ;; Auto vars:     Size  Location     Type
   992 ;;  text           11    8[COMRAM] unsigned char [11]
   993 ;; Return value:  Size  Location     Type
   994 ;;                  1    wreg      void 
   995 ;; Registers used:
   996 ;;		wreg, fsr1l, fsr1h, fsr2l, fsr2h, status,2, status,0, cstack
   997 ;; Tracked objects:
   998 ;;		On entry : 0/0
   999 ;;		On exit  : 0/0
  1000 ;;		Unchanged: 0/0
  1001 ;; Data sizes:     COMRAM   BANK0   BANK1   BANK2   BANK3   BANK4   BANK5
  1002 ;;      Params:         0       0       0       0       0       0       0
  1003 ;;      Locals:        11       0       0       0       0       0       0
  1004 ;;      Temps:          0       0       0       0       0       0       0
  1005 ;;      Totals:        11       0       0       0       0       0       0
  1006 ;;Total ram usage:       11 bytes
  1007 ;; Hardware stack levels used: 1
  1008 ;; Hardware stack levels required when called: 3
  1009 ;; This function calls:
  1010 ;;		_delay
  1011 ;;		_lcdCommand
  1012 ;;		_lcdData
  1013 ;; This function is called by:
  1014 ;;		_main
  1015 ;; This function uses a non-reentrant model
  1016 ;;
  1017                           
  1018                           	psect	text1
  1019  001E58                     __ptext1:
  1020                           	callstack 0
  1021  001E58                     _terminandoViajem:
  1022                           	callstack 27
  1023  001E58                     
  1024                           ;main.c: 115:     lcdCommand(0x01);
  1025  001E58  0E01               	movlw	1
  1026  001E5A  ECCC  F00D         	call	_lcdCommand
  1027  001E5E                     
  1028                           ;main.c: 117:     char text[11] = "Voce Chegou ";
  1029  001E5E  EE20  F0E7         	lfsr	2,terminandoViajem@F2454
  1030  001E62  EE10  F009         	lfsr	1,terminandoViajem@text
  1031  001E66  0E0A               	movlw	10
  1032  001E68                     u3111:
  1033  001E68  CFDB FFE3          	movff	plusw2,plusw1
  1034  001E6C  06E8               	decf	wreg,f,c
  1035  001E6E  E2FC               	bc	u3111
  1036  001E70                     
  1037                           ;main.c: 118:     lcdCommand(0x80 | (0));
  1038  001E70  0E80               	movlw	128
  1039  001E72  ECCC  F00D         	call	_lcdCommand
  1040  001E76                     
  1041                           ;main.c: 119:     for (i = 0; i < 11; i++) {
  1042  001E76  0E00               	movlw	0
  1043  001E78  6E78               	movwf	_i^0,c
  1044  001E7A                     l3056:
  1045  001E7A  0E0A               	movlw	10
  1046  001E7C  6478               	cpfsgt	_i^0,c
  1047  001E7E  EF43  F00F         	goto	u3121
  1048  001E82  EF45  F00F         	goto	u3120
  1049  001E86                     u3121:
  1050  001E86  EF47  F00F         	goto	l3060
  1051  001E8A                     u3120:
  1052  001E8A  EF53  F00F         	goto	l3066
  1053  001E8E                     l3060:
  1054                           
  1055                           ;main.c: 120:         lcdData(text[i]);
  1056  001E8E  0E09               	movlw	low terminandoViajem@text
  1057  001E90  2478               	addwf	_i^0,w,c
  1058  001E92  6ED9               	movwf	fsr2l,c
  1059  001E94  6ADA               	clrf	fsr2h,c
  1060  001E96  0E00               	movlw	high terminandoViajem@text
  1061  001E98  22DA               	addwfc	fsr2h,f,c
  1062  001E9A  50DF               	movf	indf2,w,c
  1063  001E9C  ECDE  F00F         	call	_lcdData
  1064  001EA0                     
  1065                           ;main.c: 121:     }
  1066  001EA0  2A78               	incf	_i^0,f,c
  1067  001EA2  EF3D  F00F         	goto	l3056
  1068  001EA6                     l3066:
  1069                           
  1070                           ;main.c: 122:     delay();
  1071  001EA6  EC5E  F010         	call	_delay	;wreg free
  1072                           
  1073                           ;main.c: 123:     delay();
  1074  001EAA  EC5E  F010         	call	_delay	;wreg free
  1075                           
  1076                           ;main.c: 124:     delay();
  1077  001EAE  EC5E  F010         	call	_delay	;wreg free
  1078                           
  1079                           ;main.c: 125:     delay();
  1080  001EB2  EC5E  F010         	call	_delay	;wreg free
  1081  001EB6  0012               	return		;funcret
  1082  001EB8                     __end_of_terminandoViajem:
  1083                           	callstack 0
  1084                           
  1085 ;; *************** function _ssdInit *****************
  1086 ;; Defined at:
  1087 ;;		line 101 in file "ssd.c"
  1088 ;; Parameters:    Size  Location     Type
  1089 ;;		None
  1090 ;; Auto vars:     Size  Location     Type
  1091 ;;		None
  1092 ;; Return value:  Size  Location     Type
  1093 ;;                  1    wreg      void 
  1094 ;; Registers used:
  1095 ;;		wreg, status,2, status,0, cstack
  1096 ;; Tracked objects:
  1097 ;;		On entry : 0/0
  1098 ;;		On exit  : 0/0
  1099 ;;		Unchanged: 0/0
  1100 ;; Data sizes:     COMRAM   BANK0   BANK1   BANK2   BANK3   BANK4   BANK5
  1101 ;;      Params:         0       0       0       0       0       0       0
  1102 ;;      Locals:         0       0       0       0       0       0       0
  1103 ;;      Temps:          0       0       0       0       0       0       0
  1104 ;;      Totals:         0       0       0       0       0       0       0
  1105 ;;Total ram usage:        0 bytes
  1106 ;; Hardware stack levels used: 1
  1107 ;; Hardware stack levels required when called: 1
  1108 ;; This function calls:
  1109 ;;		_pinMode
  1110 ;; This function is called by:
  1111 ;;		_main
  1112 ;; This function uses a non-reentrant model
  1113 ;;
  1114                           
  1115                           	psect	text2
  1116  001F66                     __ptext2:
  1117                           	callstack 0
  1118  001F66                     _ssdInit:
  1119                           	callstack 29
  1120  001F66                     
  1121                           ;ssd.c: 103:     pinMode(PIN_A2, 0);
  1122  001F66  0E00               	movlw	0
  1123  001F68  6E02               	movwf	(pinMode@pin+1)^0,c
  1124  001F6A  0E02               	movlw	2
  1125  001F6C  6E01               	movwf	pinMode@pin^0,c
  1126  001F6E  0E00               	movlw	0
  1127  001F70  6E04               	movwf	(pinMode@type+1)^0,c
  1128  001F72  0E00               	movlw	0
  1129  001F74  6E03               	movwf	pinMode@type^0,c
  1130  001F76  EC69  F005         	call	_pinMode	;wreg free
  1131                           
  1132                           ;ssd.c: 104:     pinMode(PIN_A3, 0);
  1133  001F7A  0E00               	movlw	0
  1134  001F7C  6E02               	movwf	(pinMode@pin+1)^0,c
  1135  001F7E  0E03               	movlw	3
  1136  001F80  6E01               	movwf	pinMode@pin^0,c
  1137  001F82  0E00               	movlw	0
  1138  001F84  6E04               	movwf	(pinMode@type+1)^0,c
  1139  001F86  0E00               	movlw	0
  1140  001F88  6E03               	movwf	pinMode@type^0,c
  1141  001F8A  EC69  F005         	call	_pinMode	;wreg free
  1142                           
  1143                           ;ssd.c: 105:     pinMode(PIN_A4, 0);
  1144  001F8E  0E00               	movlw	0
  1145  001F90  6E02               	movwf	(pinMode@pin+1)^0,c
  1146  001F92  0E04               	movlw	4
  1147  001F94  6E01               	movwf	pinMode@pin^0,c
  1148  001F96  0E00               	movlw	0
  1149  001F98  6E04               	movwf	(pinMode@type+1)^0,c
  1150  001F9A  0E00               	movlw	0
  1151  001F9C  6E03               	movwf	pinMode@type^0,c
  1152  001F9E  EC69  F005         	call	_pinMode	;wreg free
  1153                           
  1154                           ;ssd.c: 106:     pinMode(PIN_A5, 0);
  1155  001FA2  0E00               	movlw	0
  1156  001FA4  6E02               	movwf	(pinMode@pin+1)^0,c
  1157  001FA6  0E05               	movlw	5
  1158  001FA8  6E01               	movwf	pinMode@pin^0,c
  1159  001FAA  0E00               	movlw	0
  1160  001FAC  6E04               	movwf	(pinMode@type+1)^0,c
  1161  001FAE  0E00               	movlw	0
  1162  001FB0  6E03               	movwf	pinMode@type^0,c
  1163  001FB2  EC69  F005         	call	_pinMode	;wreg free
  1164  001FB6                     
  1165                           ;ssd.c: 109:     TRISD = 0x00;
  1166  001FB6  0E00               	movlw	0
  1167  001FB8  6E95               	movwf	149,c	;volatile
  1168  001FBA  0012               	return		;funcret
  1169  001FBC                     __end_of_ssdInit:
  1170                           	callstack 0
  1171                           
  1172 ;; *************** function _pwmInit *****************
  1173 ;; Defined at:
  1174 ;;		line 51 in file "pwm.c"
  1175 ;; Parameters:    Size  Location     Type
  1176 ;;		None
  1177 ;; Auto vars:     Size  Location     Type
  1178 ;;		None
  1179 ;; Return value:  Size  Location     Type
  1180 ;;                  1    wreg      void 
  1181 ;; Registers used:
  1182 ;;		wreg, status,2, status,0, cstack
  1183 ;; Tracked objects:
  1184 ;;		On entry : 0/0
  1185 ;;		On exit  : 0/0
  1186 ;;		Unchanged: 0/0
  1187 ;; Data sizes:     COMRAM   BANK0   BANK1   BANK2   BANK3   BANK4   BANK5
  1188 ;;      Params:         0       0       0       0       0       0       0
  1189 ;;      Locals:         0       0       0       0       0       0       0
  1190 ;;      Temps:          0       0       0       0       0       0       0
  1191 ;;      Totals:         0       0       0       0       0       0       0
  1192 ;;Total ram usage:        0 bytes
  1193 ;; Hardware stack levels used: 1
  1194 ;; Hardware stack levels required when called: 2
  1195 ;; This function calls:
  1196 ;;		_pwmFrequency
  1197 ;; This function is called by:
  1198 ;;		_main
  1199 ;; This function uses a non-reentrant model
  1200 ;;
  1201                           
  1202                           	psect	text3
  1203  002152                     __ptext3:
  1204                           	callstack 0
  1205  002152                     _pwmInit:
  1206                           	callstack 28
  1207  002152                     
  1208                           ;pwm.c: 53:  ((TRISC) &= ~(1<<(2)));
  1209  002152  9494               	bcf	148,2,c	;volatile
  1210  002154                     
  1211                           ;pwm.c: 55:  T2CON |= 0b00000011;
  1212  002154  0E03               	movlw	3
  1213  002156  12CA               	iorwf	202,f,c	;volatile
  1214  002158                     
  1215                           ;pwm.c: 56:  ((T2CON) |= (1<<(2)));
  1216  002158  84CA               	bsf	202,2,c	;volatile
  1217  00215A                     
  1218                           ;pwm.c: 58:  CCP1CON = 0b00001100;
  1219  00215A  0E0C               	movlw	12
  1220  00215C  6EBD               	movwf	189,c	;volatile
  1221  00215E                     
  1222                           ;pwm.c: 60:     pwmFrequency(100);
  1223  00215E  0E00               	movlw	0
  1224  002160  6E10               	movwf	(pwmFrequency@freq+1)^0,c
  1225  002162  0E64               	movlw	100
  1226  002164  6E0F               	movwf	pwmFrequency@freq^0,c
  1227  002166  EC75  F010         	call	_pwmFrequency	;wreg free
  1228  00216A  0012               	return		;funcret
  1229  00216C                     __end_of_pwmInit:
  1230                           	callstack 0
  1231                           
  1232 ;; *************** function _paradaEmergencial *****************
  1233 ;; Defined at:
  1234 ;;		line 178 in file "main.c"
  1235 ;; Parameters:    Size  Location     Type
  1236 ;;		None
  1237 ;; Auto vars:     Size  Location     Type
  1238 ;;  text           16   16[COMRAM] unsigned char [16]
  1239 ;; Return value:  Size  Location     Type
  1240 ;;                  1    wreg      void 
  1241 ;; Registers used:
  1242 ;;		wreg, fsr1l, fsr1h, fsr2l, fsr2h, status,2, status,0, prodl, prodh, cstack
  1243 ;; Tracked objects:
  1244 ;;		On entry : 0/0
  1245 ;;		On exit  : 0/0
  1246 ;;		Unchanged: 0/0
  1247 ;; Data sizes:     COMRAM   BANK0   BANK1   BANK2   BANK3   BANK4   BANK5
  1248 ;;      Params:         0       0       0       0       0       0       0
  1249 ;;      Locals:        16       0       0       0       0       0       0
  1250 ;;      Temps:          0       0       0       0       0       0       0
  1251 ;;      Totals:        16       0       0       0       0       0       0
  1252 ;;Total ram usage:       16 bytes
  1253 ;; Hardware stack levels used: 1
  1254 ;; Hardware stack levels required when called: 4
  1255 ;; This function calls:
  1256 ;;		_inverso
  1257 ;;		_lcdCommand
  1258 ;;		_lcdData
  1259 ;;		_pwmFrequency
  1260 ;;		_pwmSet
  1261 ;;		_shift
  1262 ;;		_verso
  1263 ;; This function is called by:
  1264 ;;		_main
  1265 ;; This function uses a non-reentrant model
  1266 ;;
  1267                           
  1268                           	psect	text4
  1269  001AFA                     __ptext4:
  1270                           	callstack 0
  1271  001AFA                     _paradaEmergencial:
  1272                           	callstack 26
  1273  001AFA                     
  1274                           ;main.c: 179:     lcdCommand(0x01);
  1275  001AFA  0E01               	movlw	1
  1276  001AFC  ECCC  F00D         	call	_lcdCommand
  1277  001B00                     
  1278                           ;main.c: 181:     pwmSet(99);
  1279  001B00  0E63               	movlw	99
  1280  001B02  ECC0  F00E         	call	_pwmSet
  1281  001B06                     
  1282                           ;main.c: 182:     pwmFrequency(1000);
  1283  001B06  0E03               	movlw	3
  1284  001B08  6E10               	movwf	(pwmFrequency@freq+1)^0,c
  1285  001B0A  0EE8               	movlw	232
  1286  001B0C  6E0F               	movwf	pwmFrequency@freq^0,c
  1287  001B0E  EC75  F010         	call	_pwmFrequency	;wreg free
  1288  001B12                     
  1289                           ;main.c: 184:     char text[16] = "POUSO EMERGENCIAL";
  1290  001B12  EE20  F0A0         	lfsr	2,paradaEmergencial@F2468
  1291  001B16  EE10  F011         	lfsr	1,paradaEmergencial@text
  1292  001B1A  0E0F               	movlw	15
  1293  001B1C                     u3171:
  1294  001B1C  CFDB FFE3          	movff	plusw2,plusw1
  1295  001B20  06E8               	decf	wreg,f,c
  1296  001B22  E2FC               	bc	u3171
  1297  001B24                     
  1298                           ;main.c: 185:     lcdCommand(0x80 | (0));
  1299  001B24  0E80               	movlw	128
  1300  001B26  ECCC  F00D         	call	_lcdCommand
  1301  001B2A                     
  1302                           ;main.c: 186:     for (i = 0; i < 15; i++) {
  1303  001B2A  0E00               	movlw	0
  1304  001B2C  6E78               	movwf	_i^0,c
  1305  001B2E                     l3106:
  1306  001B2E  0E0E               	movlw	14
  1307  001B30  6478               	cpfsgt	_i^0,c
  1308  001B32  EF9D  F00D         	goto	u3181
  1309  001B36  EF9F  F00D         	goto	u3180
  1310  001B3A                     u3181:
  1311  001B3A  EFA1  F00D         	goto	l3110
  1312  001B3E                     u3180:
  1313  001B3E  EFAD  F00D         	goto	l3116
  1314  001B42                     l3110:
  1315                           
  1316                           ;main.c: 187:         lcdData(text[i]);
  1317  001B42  0E11               	movlw	low paradaEmergencial@text
  1318  001B44  2478               	addwf	_i^0,w,c
  1319  001B46  6ED9               	movwf	fsr2l,c
  1320  001B48  6ADA               	clrf	fsr2h,c
  1321  001B4A  0E00               	movlw	high paradaEmergencial@text
  1322  001B4C  22DA               	addwfc	fsr2h,f,c
  1323  001B4E  50DF               	movf	indf2,w,c
  1324  001B50  ECDE  F00F         	call	_lcdData
  1325  001B54                     
  1326                           ;main.c: 188:     }
  1327  001B54  2A78               	incf	_i^0,f,c
  1328  001B56  EF97  F00D         	goto	l3106
  1329  001B5A                     l3116:
  1330                           
  1331                           ;main.c: 189:     shift(400, 0);
  1332  001B5A  0E01               	movlw	1
  1333  001B5C  6E0A               	movwf	(shift@t+1)^0,c
  1334  001B5E  0E90               	movlw	144
  1335  001B60  6E09               	movwf	shift@t^0,c
  1336  001B62  0E00               	movlw	0
  1337  001B64  6E0C               	movwf	(shift@op+1)^0,c
  1338  001B66  0E00               	movlw	0
  1339  001B68  6E0B               	movwf	shift@op^0,c
  1340  001B6A  ECF6  F00E         	call	_shift	;wreg free
  1341                           
  1342                           ;main.c: 190:     verso();
  1343  001B6E  EC30  F010         	call	_verso	;wreg free
  1344                           
  1345                           ;main.c: 191:     inverso();
  1346  001B72  EC47  F010         	call	_inverso	;wreg free
  1347                           
  1348                           ;main.c: 192:     verso();
  1349  001B76  EC30  F010         	call	_verso	;wreg free
  1350                           
  1351                           ;main.c: 193:     inverso();
  1352  001B7A  EC47  F010         	call	_inverso	;wreg free
  1353  001B7E                     
  1354                           ;main.c: 195:     pwmSet(0);
  1355  001B7E  0E00               	movlw	0
  1356  001B80  ECC0  F00E         	call	_pwmSet
  1357  001B84                     
  1358                           ;main.c: 196:     pwmFrequency(0);
  1359  001B84  0E00               	movlw	0
  1360  001B86  6E10               	movwf	(pwmFrequency@freq+1)^0,c
  1361  001B88  0E00               	movlw	0
  1362  001B8A  6E0F               	movwf	pwmFrequency@freq^0,c
  1363  001B8C  EC75  F010         	call	_pwmFrequency	;wreg free
  1364  001B90                     
  1365                           ;main.c: 198:     lcdCommand(0x01);
  1366  001B90  0E01               	movlw	1
  1367  001B92  ECCC  F00D         	call	_lcdCommand
  1368  001B96  0012               	return		;funcret
  1369  001B98                     __end_of_paradaEmergencial:
  1370                           	callstack 0
  1371                           
  1372 ;; *************** function _verso *****************
  1373 ;; Defined at:
  1374 ;;		line 152 in file "main.c"
  1375 ;; Parameters:    Size  Location     Type
  1376 ;;		None
  1377 ;; Auto vars:     Size  Location     Type
  1378 ;;  x               1    3[COMRAM] unsigned char 
  1379 ;;  k               1    2[COMRAM] unsigned char 
  1380 ;; Return value:  Size  Location     Type
  1381 ;;                  1    wreg      void 
  1382 ;; Registers used:
  1383 ;;		wreg, status,2, status,0, cstack
  1384 ;; Tracked objects:
  1385 ;;		On entry : 0/0
  1386 ;;		On exit  : 0/0
  1387 ;;		Unchanged: 0/0
  1388 ;; Data sizes:     COMRAM   BANK0   BANK1   BANK2   BANK3   BANK4   BANK5
  1389 ;;      Params:         0       0       0       0       0       0       0
  1390 ;;      Locals:         2       0       0       0       0       0       0
  1391 ;;      Temps:          0       0       0       0       0       0       0
  1392 ;;      Totals:         2       0       0       0       0       0       0
  1393 ;;Total ram usage:        2 bytes
  1394 ;; Hardware stack levels used: 1
  1395 ;; Hardware stack levels required when called: 1
  1396 ;; This function calls:
  1397 ;;		_delay
  1398 ;; This function is called by:
  1399 ;;		_paradaEmergencial
  1400 ;; This function uses a non-reentrant model
  1401 ;;
  1402                           
  1403                           	psect	text5
  1404  002060                     __ptext5:
  1405                           	callstack 0
  1406  002060                     _verso:
  1407                           	callstack 28
  1408  002060                     
  1409                           ;main.c: 153:     delay();
  1410  002060  EC5E  F010         	call	_delay	;wreg free
  1411  002064                     
  1412                           ;main.c: 154:     unsigned char k, x;;main.c: 155:     x = 0b10000001;
  1413  002064  0E81               	movlw	129
  1414  002066  6E04               	movwf	verso@x^0,c
  1415  002068                     
  1416                           ;main.c: 156:     for (k = 0; k < 8; k++) {
  1417  002068  0E00               	movlw	0
  1418  00206A  6E03               	movwf	verso@k^0,c
  1419  00206C                     l2552:
  1420                           
  1421                           ;main.c: 157:         delay();
  1422  00206C  EC5E  F010         	call	_delay	;wreg free
  1423  002070                     
  1424                           ;main.c: 158:         PORTD = x;
  1425  002070  C004  FF83         	movff	verso@x,3971	;volatile
  1426  002074                     
  1427                           ;main.c: 159:         x = x << 1;
  1428  002074  5004               	movf	verso@x^0,w,c
  1429  002076  2404               	addwf	verso@x^0,w,c
  1430  002078  6E04               	movwf	verso@x^0,c
  1431  00207A                     
  1432                           ;main.c: 160:     }
  1433  00207A  2A03               	incf	verso@k^0,f,c
  1434  00207C  0E07               	movlw	7
  1435  00207E  6403               	cpfsgt	verso@k^0,c
  1436  002080  EF44  F010         	goto	u2391
  1437  002084  EF46  F010         	goto	u2390
  1438  002088                     u2391:
  1439  002088  EF36  F010         	goto	l2552
  1440  00208C                     u2390:
  1441  00208C  0012               	return		;funcret
  1442  00208E                     __end_of_verso:
  1443                           	callstack 0
  1444                           
  1445 ;; *************** function _pwmSet *****************
  1446 ;; Defined at:
  1447 ;;		line 24 in file "pwm.c"
  1448 ;; Parameters:    Size  Location     Type
  1449 ;;  porcento        1    wreg     unsigned char 
  1450 ;; Auto vars:     Size  Location     Type
  1451 ;;  porcento        1    9[COMRAM] unsigned char 
  1452 ;;  val             2   10[COMRAM] unsigned int 
  1453 ;; Return value:  Size  Location     Type
  1454 ;;                  1    wreg      void 
  1455 ;; Registers used:
  1456 ;;		wreg, status,2, status,0, prodl, prodh, cstack
  1457 ;; Tracked objects:
  1458 ;;		On entry : 0/0
  1459 ;;		On exit  : 0/0
  1460 ;;		Unchanged: 0/0
  1461 ;; Data sizes:     COMRAM   BANK0   BANK1   BANK2   BANK3   BANK4   BANK5
  1462 ;;      Params:         0       0       0       0       0       0       0
  1463 ;;      Locals:         3       0       0       0       0       0       0
  1464 ;;      Temps:          2       0       0       0       0       0       0
  1465 ;;      Totals:         5       0       0       0       0       0       0
  1466 ;;Total ram usage:        5 bytes
  1467 ;; Hardware stack levels used: 1
  1468 ;; Hardware stack levels required when called: 1
  1469 ;; This function calls:
  1470 ;;		___lwdiv
  1471 ;;		___wmul
  1472 ;; This function is called by:
  1473 ;;		_paradaEmergencial
  1474 ;; This function uses a non-reentrant model
  1475 ;;
  1476                           
  1477                           	psect	text6
  1478  001D80                     __ptext6:
  1479                           	callstack 0
  1480  001D80                     _pwmSet:
  1481                           	callstack 28
  1482                           
  1483                           ;incstack = 0
  1484                           ;pwmSet@porcento stored from wreg
  1485  001D80  6E0A               	movwf	pwmSet@porcento^0,c
  1486  001D82                     
  1487                           ;pwm.c: 24: void pwmSet(unsigned char porcento);pwm.c: 25: {;pwm.c: 31:  unsigned int va
      +                          l = ((unsigned int)porcento) *(PR2+1);
  1488  001D82  0E01               	movlw	1
  1489  001D84  24CB               	addwf	203,w,c	;volatile
  1490  001D86  6E01               	movwf	___wmul@multiplier^0,c
  1491  001D88  6A02               	clrf	(___wmul@multiplier+1)^0,c
  1492  001D8A  0E00               	movlw	0
  1493  001D8C  2202               	addwfc	(___wmul@multiplier+1)^0,f,c
  1494  001D8E  C00A  F003         	movff	pwmSet@porcento,___wmul@multiplicand
  1495  001D92  6A04               	clrf	(___wmul@multiplicand+1)^0,c
  1496  001D94  EC88  F010         	call	___wmul	;wreg free
  1497  001D98  C001  F00B         	movff	?___wmul,pwmSet@val
  1498  001D9C  C002  F00C         	movff	?___wmul+1,pwmSet@val+1
  1499  001DA0                     
  1500                           ;pwm.c: 33:     val = val / 25;
  1501  001DA0  C00B  F001         	movff	pwmSet@val,___lwdiv@dividend
  1502  001DA4  C00C  F002         	movff	pwmSet@val+1,___lwdiv@dividend+1
  1503  001DA8  0E00               	movlw	0
  1504  001DAA  6E04               	movwf	(___lwdiv@divisor+1)^0,c
  1505  001DAC  0E19               	movlw	25
  1506  001DAE  6E03               	movwf	___lwdiv@divisor^0,c
  1507  001DB0  EC86  F00E         	call	___lwdiv	;wreg free
  1508  001DB4  C001  F00B         	movff	?___lwdiv,pwmSet@val
  1509  001DB8  C002  F00C         	movff	?___lwdiv+1,pwmSet@val+1
  1510  001DBC                     
  1511                           ;pwm.c: 35:  val &= 0x03ff;
  1512  001DBC  0EFF               	movlw	255
  1513  001DBE  160B               	andwf	pwmSet@val^0,f,c
  1514  001DC0  0E03               	movlw	3
  1515  001DC2  160C               	andwf	(pwmSet@val+1)^0,f,c
  1516  001DC4                     
  1517                           ;pwm.c: 37:  CCPR1L = val >> 2;
  1518  001DC4  C00B  F008         	movff	pwmSet@val,??_pwmSet
  1519  001DC8  C00C  F009         	movff	pwmSet@val+1,??_pwmSet+1
  1520  001DCC  90D8               	bcf	status,0,c
  1521  001DCE  3209               	rrcf	(??_pwmSet+1)^0,f,c
  1522  001DD0  3208               	rrcf	??_pwmSet^0,f,c
  1523  001DD2  90D8               	bcf	status,0,c
  1524  001DD4  3209               	rrcf	(??_pwmSet+1)^0,f,c
  1525  001DD6  3208               	rrcf	??_pwmSet^0,f,c
  1526  001DD8  5008               	movf	??_pwmSet^0,w,c
  1527  001DDA  6EBE               	movwf	190,c	;volatile
  1528  001DDC                     
  1529                           ;pwm.c: 39:  CCP1CON |= (val & 0x0003) << 4;
  1530  001DDC  C00B  F008         	movff	pwmSet@val,??_pwmSet	;volatile
  1531  001DE0  0E03               	movlw	3
  1532  001DE2  1608               	andwf	??_pwmSet^0,f,c
  1533  001DE4  3808               	swapf	??_pwmSet^0,w,c
  1534  001DE6  0BF0               	andlw	240
  1535  001DE8  12BD               	iorwf	189,f,c	;volatile
  1536  001DEA  0012               	return		;funcret
  1537  001DEC                     __end_of_pwmSet:
  1538                           	callstack 0
  1539                           
  1540 ;; *************** function ___lwdiv *****************
  1541 ;; Defined at:
  1542 ;;		line 7 in file "C:\Program Files\Microchip\xc8\v2.32\pic\sources\c99\common\lwdiv.c"
  1543 ;; Parameters:    Size  Location     Type
  1544 ;;  dividend        2    0[COMRAM] unsigned int 
  1545 ;;  divisor         2    2[COMRAM] unsigned int 
  1546 ;; Auto vars:     Size  Location     Type
  1547 ;;  quotient        2    4[COMRAM] unsigned int 
  1548 ;;  counter         1    6[COMRAM] unsigned char 
  1549 ;; Return value:  Size  Location     Type
  1550 ;;                  2    0[COMRAM] unsigned int 
  1551 ;; Registers used:
  1552 ;;		wreg, status,2, status,0
  1553 ;; Tracked objects:
  1554 ;;		On entry : 0/0
  1555 ;;		On exit  : 0/0
  1556 ;;		Unchanged: 0/0
  1557 ;; Data sizes:     COMRAM   BANK0   BANK1   BANK2   BANK3   BANK4   BANK5
  1558 ;;      Params:         4       0       0       0       0       0       0
  1559 ;;      Locals:         3       0       0       0       0       0       0
  1560 ;;      Temps:          0       0       0       0       0       0       0
  1561 ;;      Totals:         7       0       0       0       0       0       0
  1562 ;;Total ram usage:        7 bytes
  1563 ;; Hardware stack levels used: 1
  1564 ;; This function calls:
  1565 ;;		Nothing
  1566 ;; This function is called by:
  1567 ;;		_pwmSet
  1568 ;; This function uses a non-reentrant model
  1569 ;;
  1570                           
  1571                           	psect	text7
  1572  001D0C                     __ptext7:
  1573                           	callstack 0
  1574  001D0C                     ___lwdiv:
  1575                           	callstack 28
  1576  001D0C  0E00               	movlw	0
  1577  001D0E  6E06               	movwf	(___lwdiv@quotient+1)^0,c
  1578  001D10  0E00               	movlw	0
  1579  001D12  6E05               	movwf	___lwdiv@quotient^0,c
  1580  001D14  5003               	movf	___lwdiv@divisor^0,w,c
  1581  001D16  1004               	iorwf	(___lwdiv@divisor+1)^0,w,c
  1582  001D18  B4D8               	btfsc	status,2,c
  1583  001D1A  EF91  F00E         	goto	u2091
  1584  001D1E  EF93  F00E         	goto	u2090
  1585  001D22                     u2091:
  1586  001D22  EFBB  F00E         	goto	l862
  1587  001D26                     u2090:
  1588  001D26  0E01               	movlw	1
  1589  001D28  6E07               	movwf	___lwdiv@counter^0,c
  1590  001D2A  EF9B  F00E         	goto	l2382
  1591  001D2E                     l2380:
  1592  001D2E  90D8               	bcf	status,0,c
  1593  001D30  3603               	rlcf	___lwdiv@divisor^0,f,c
  1594  001D32  3604               	rlcf	(___lwdiv@divisor+1)^0,f,c
  1595  001D34  2A07               	incf	___lwdiv@counter^0,f,c
  1596  001D36                     l2382:
  1597  001D36  AE04               	btfss	(___lwdiv@divisor+1)^0,7,c
  1598  001D38  EFA0  F00E         	goto	u2101
  1599  001D3C  EFA2  F00E         	goto	u2100
  1600  001D40                     u2101:
  1601  001D40  EF97  F00E         	goto	l2380
  1602  001D44                     u2100:
  1603  001D44                     l2384:
  1604  001D44  90D8               	bcf	status,0,c
  1605  001D46  3605               	rlcf	___lwdiv@quotient^0,f,c
  1606  001D48  3606               	rlcf	(___lwdiv@quotient+1)^0,f,c
  1607  001D4A  5003               	movf	___lwdiv@divisor^0,w,c
  1608  001D4C  5C01               	subwf	___lwdiv@dividend^0,w,c
  1609  001D4E  5004               	movf	(___lwdiv@divisor+1)^0,w,c
  1610  001D50  5802               	subwfb	(___lwdiv@dividend+1)^0,w,c
  1611  001D52  A0D8               	btfss	status,0,c
  1612  001D54  EFAE  F00E         	goto	u2111
  1613  001D58  EFB0  F00E         	goto	u2110
  1614  001D5C                     u2111:
  1615  001D5C  EFB5  F00E         	goto	l2392
  1616  001D60                     u2110:
  1617  001D60  5003               	movf	___lwdiv@divisor^0,w,c
  1618  001D62  5E01               	subwf	___lwdiv@dividend^0,f,c
  1619  001D64  5004               	movf	(___lwdiv@divisor+1)^0,w,c
  1620  001D66  5A02               	subwfb	(___lwdiv@dividend+1)^0,f,c
  1621  001D68  8005               	bsf	___lwdiv@quotient^0,0,c
  1622  001D6A                     l2392:
  1623  001D6A  90D8               	bcf	status,0,c
  1624  001D6C  3204               	rrcf	(___lwdiv@divisor+1)^0,f,c
  1625  001D6E  3203               	rrcf	___lwdiv@divisor^0,f,c
  1626  001D70  2E07               	decfsz	___lwdiv@counter^0,f,c
  1627  001D72  EFA2  F00E         	goto	l2384
  1628  001D76                     l862:
  1629  001D76  C005  F001         	movff	___lwdiv@quotient,?___lwdiv
  1630  001D7A  C006  F002         	movff	___lwdiv@quotient+1,?___lwdiv+1
  1631  001D7E  0012               	return		;funcret
  1632  001D80                     __end_of___lwdiv:
  1633                           	callstack 0
  1634                           
  1635 ;; *************** function _pwmFrequency *****************
  1636 ;; Defined at:
  1637 ;;		line 44 in file "pwm.c"
  1638 ;; Parameters:    Size  Location     Type
  1639 ;;  freq            2   14[COMRAM] unsigned int 
  1640 ;; Auto vars:     Size  Location     Type
  1641 ;;		None
  1642 ;; Return value:  Size  Location     Type
  1643 ;;                  1    wreg      void 
  1644 ;; Registers used:
  1645 ;;		wreg, status,2, status,0, cstack
  1646 ;; Tracked objects:
  1647 ;;		On entry : 0/0
  1648 ;;		On exit  : 0/0
  1649 ;;		Unchanged: 0/0
  1650 ;; Data sizes:     COMRAM   BANK0   BANK1   BANK2   BANK3   BANK4   BANK5
  1651 ;;      Params:         2       0       0       0       0       0       0
  1652 ;;      Locals:         0       0       0       0       0       0       0
  1653 ;;      Temps:          0       0       0       0       0       0       0
  1654 ;;      Totals:         2       0       0       0       0       0       0
  1655 ;;Total ram usage:        2 bytes
  1656 ;; Hardware stack levels used: 1
  1657 ;; Hardware stack levels required when called: 1
  1658 ;; This function calls:
  1659 ;;		___aldiv
  1660 ;; This function is called by:
  1661 ;;		_paradaEmergencial
  1662 ;;		_pwmInit
  1663 ;; This function uses a non-reentrant model
  1664 ;;
  1665                           
  1666                           	psect	text8
  1667  0020EA                     __ptext8:
  1668                           	callstack 0
  1669  0020EA                     _pwmFrequency:
  1670                           	callstack 28
  1671  0020EA                     
  1672                           ;pwm.c: 44: void pwmFrequency(unsigned int freq);pwm.c: 45: {;pwm.c: 48:  PR2 = (125000l
      +                          /(freq)) - 1;
  1673  0020EA  0E48               	movlw	72
  1674  0020EC  6E01               	movwf	___aldiv@dividend^0,c
  1675  0020EE  0EE8               	movlw	232
  1676  0020F0  6E02               	movwf	(___aldiv@dividend+1)^0,c
  1677  0020F2  0E01               	movlw	1
  1678  0020F4  6E03               	movwf	(___aldiv@dividend+2)^0,c
  1679  0020F6  0E00               	movlw	0
  1680  0020F8  6E04               	movwf	(___aldiv@dividend+3)^0,c
  1681  0020FA  C00F  F005         	movff	pwmFrequency@freq,___aldiv@divisor
  1682  0020FE  C010  F006         	movff	pwmFrequency@freq+1,___aldiv@divisor+1
  1683  002102  6A07               	clrf	(___aldiv@divisor+2)^0,c
  1684  002104  6A08               	clrf	(___aldiv@divisor+3)^0,c
  1685  002106  EC63  F00B         	call	___aldiv	;wreg free
  1686  00210A  0401               	decf	?___aldiv^0,w,c
  1687  00210C  6ECB               	movwf	203,c	;volatile
  1688  00210E  0012               	return		;funcret
  1689  002110                     __end_of_pwmFrequency:
  1690                           	callstack 0
  1691                           
  1692 ;; *************** function ___aldiv *****************
  1693 ;; Defined at:
  1694 ;;		line 7 in file "C:\Program Files\Microchip\xc8\v2.32\pic\sources\c99\common\aldiv.c"
  1695 ;; Parameters:    Size  Location     Type
  1696 ;;  dividend        4    0[COMRAM] long 
  1697 ;;  divisor         4    4[COMRAM] long 
  1698 ;; Auto vars:     Size  Location     Type
  1699 ;;  quotient        4   10[COMRAM] long 
  1700 ;;  sign            1    9[COMRAM] unsigned char 
  1701 ;;  counter         1    8[COMRAM] unsigned char 
  1702 ;; Return value:  Size  Location     Type
  1703 ;;                  4    0[COMRAM] long 
  1704 ;; Registers used:
  1705 ;;		wreg, status,2, status,0
  1706 ;; Tracked objects:
  1707 ;;		On entry : 0/0
  1708 ;;		On exit  : 0/0
  1709 ;;		Unchanged: 0/0
  1710 ;; Data sizes:     COMRAM   BANK0   BANK1   BANK2   BANK3   BANK4   BANK5
  1711 ;;      Params:         8       0       0       0       0       0       0
  1712 ;;      Locals:         6       0       0       0       0       0       0
  1713 ;;      Temps:          0       0       0       0       0       0       0
  1714 ;;      Totals:        14       0       0       0       0       0       0
  1715 ;;Total ram usage:       14 bytes
  1716 ;; Hardware stack levels used: 1
  1717 ;; This function calls:
  1718 ;;		Nothing
  1719 ;; This function is called by:
  1720 ;;		_pwmFrequency
  1721 ;; This function uses a non-reentrant model
  1722 ;;
  1723                           
  1724                           	psect	text9
  1725  0016C6                     __ptext9:
  1726                           	callstack 0
  1727  0016C6                     ___aldiv:
  1728                           	callstack 28
  1729  0016C6  0E00               	movlw	0
  1730  0016C8  6E0A               	movwf	___aldiv@sign^0,c
  1731  0016CA  BE08               	btfsc	(___aldiv@divisor+3)^0,7,c
  1732  0016CC  EF6C  F00B         	goto	u2030
  1733  0016D0  EF6A  F00B         	goto	u2031
  1734  0016D4                     u2031:
  1735  0016D4  EF76  F00B         	goto	l2338
  1736  0016D8                     u2030:
  1737  0016D8  1E08               	comf	(___aldiv@divisor+3)^0,f,c
  1738  0016DA  1E07               	comf	(___aldiv@divisor+2)^0,f,c
  1739  0016DC  1E06               	comf	(___aldiv@divisor+1)^0,f,c
  1740  0016DE  6C05               	negf	___aldiv@divisor^0,c
  1741  0016E0  0E00               	movlw	0
  1742  0016E2  2206               	addwfc	(___aldiv@divisor+1)^0,f,c
  1743  0016E4  2207               	addwfc	(___aldiv@divisor+2)^0,f,c
  1744  0016E6  2208               	addwfc	(___aldiv@divisor+3)^0,f,c
  1745  0016E8  0E01               	movlw	1
  1746  0016EA  6E0A               	movwf	___aldiv@sign^0,c
  1747  0016EC                     l2338:
  1748  0016EC  BE04               	btfsc	(___aldiv@dividend+3)^0,7,c
  1749  0016EE  EF7D  F00B         	goto	u2040
  1750  0016F2  EF7B  F00B         	goto	u2041
  1751  0016F6                     u2041:
  1752  0016F6  EF87  F00B         	goto	l2344
  1753  0016FA                     u2040:
  1754  0016FA  1E04               	comf	(___aldiv@dividend+3)^0,f,c
  1755  0016FC  1E03               	comf	(___aldiv@dividend+2)^0,f,c
  1756  0016FE  1E02               	comf	(___aldiv@dividend+1)^0,f,c
  1757  001700  6C01               	negf	___aldiv@dividend^0,c
  1758  001702  0E00               	movlw	0
  1759  001704  2202               	addwfc	(___aldiv@dividend+1)^0,f,c
  1760  001706  2203               	addwfc	(___aldiv@dividend+2)^0,f,c
  1761  001708  2204               	addwfc	(___aldiv@dividend+3)^0,f,c
  1762  00170A  0E01               	movlw	1
  1763  00170C  1A0A               	xorwf	___aldiv@sign^0,f,c
  1764  00170E                     l2344:
  1765  00170E  0E00               	movlw	0
  1766  001710  6E0B               	movwf	___aldiv@quotient^0,c
  1767  001712  0E00               	movlw	0
  1768  001714  6E0C               	movwf	(___aldiv@quotient+1)^0,c
  1769  001716  0E00               	movlw	0
  1770  001718  6E0D               	movwf	(___aldiv@quotient+2)^0,c
  1771  00171A  0E00               	movlw	0
  1772  00171C  6E0E               	movwf	(___aldiv@quotient+3)^0,c
  1773  00171E  5005               	movf	___aldiv@divisor^0,w,c
  1774  001720  1006               	iorwf	(___aldiv@divisor+1)^0,w,c
  1775  001722  1007               	iorwf	(___aldiv@divisor+2)^0,w,c
  1776  001724  1008               	iorwf	(___aldiv@divisor+3)^0,w,c
  1777  001726  B4D8               	btfsc	status,2,c
  1778  001728  EF98  F00B         	goto	u2051
  1779  00172C  EF9A  F00B         	goto	u2050
  1780  001730                     u2051:
  1781  001730  EFD0  F00B         	goto	l2366
  1782  001734                     u2050:
  1783  001734  0E01               	movlw	1
  1784  001736  6E09               	movwf	___aldiv@counter^0,c
  1785  001738  EFA4  F00B         	goto	l2352
  1786  00173C                     l2350:
  1787  00173C  90D8               	bcf	status,0,c
  1788  00173E  3605               	rlcf	___aldiv@divisor^0,f,c
  1789  001740  3606               	rlcf	(___aldiv@divisor+1)^0,f,c
  1790  001742  3607               	rlcf	(___aldiv@divisor+2)^0,f,c
  1791  001744  3608               	rlcf	(___aldiv@divisor+3)^0,f,c
  1792  001746  2A09               	incf	___aldiv@counter^0,f,c
  1793  001748                     l2352:
  1794  001748  AE08               	btfss	(___aldiv@divisor+3)^0,7,c
  1795  00174A  EFA9  F00B         	goto	u2061
  1796  00174E  EFAB  F00B         	goto	u2060
  1797  001752                     u2061:
  1798  001752  EF9E  F00B         	goto	l2350
  1799  001756                     u2060:
  1800  001756                     l2354:
  1801  001756  90D8               	bcf	status,0,c
  1802  001758  360B               	rlcf	___aldiv@quotient^0,f,c
  1803  00175A  360C               	rlcf	(___aldiv@quotient+1)^0,f,c
  1804  00175C  360D               	rlcf	(___aldiv@quotient+2)^0,f,c
  1805  00175E  360E               	rlcf	(___aldiv@quotient+3)^0,f,c
  1806  001760  5005               	movf	___aldiv@divisor^0,w,c
  1807  001762  5C01               	subwf	___aldiv@dividend^0,w,c
  1808  001764  5006               	movf	(___aldiv@divisor+1)^0,w,c
  1809  001766  5802               	subwfb	(___aldiv@dividend+1)^0,w,c
  1810  001768  5007               	movf	(___aldiv@divisor+2)^0,w,c
  1811  00176A  5803               	subwfb	(___aldiv@dividend+2)^0,w,c
  1812  00176C  5008               	movf	(___aldiv@divisor+3)^0,w,c
  1813  00176E  5804               	subwfb	(___aldiv@dividend+3)^0,w,c
  1814  001770  A0D8               	btfss	status,0,c
  1815  001772  EFBD  F00B         	goto	u2071
  1816  001776  EFBF  F00B         	goto	u2070
  1817  00177A                     u2071:
  1818  00177A  EFC8  F00B         	goto	l2362
  1819  00177E                     u2070:
  1820  00177E  5005               	movf	___aldiv@divisor^0,w,c
  1821  001780  5E01               	subwf	___aldiv@dividend^0,f,c
  1822  001782  5006               	movf	(___aldiv@divisor+1)^0,w,c
  1823  001784  5A02               	subwfb	(___aldiv@dividend+1)^0,f,c
  1824  001786  5007               	movf	(___aldiv@divisor+2)^0,w,c
  1825  001788  5A03               	subwfb	(___aldiv@dividend+2)^0,f,c
  1826  00178A  5008               	movf	(___aldiv@divisor+3)^0,w,c
  1827  00178C  5A04               	subwfb	(___aldiv@dividend+3)^0,f,c
  1828  00178E  800B               	bsf	___aldiv@quotient^0,0,c
  1829  001790                     l2362:
  1830  001790  90D8               	bcf	status,0,c
  1831  001792  3208               	rrcf	(___aldiv@divisor+3)^0,f,c
  1832  001794  3207               	rrcf	(___aldiv@divisor+2)^0,f,c
  1833  001796  3206               	rrcf	(___aldiv@divisor+1)^0,f,c
  1834  001798  3205               	rrcf	___aldiv@divisor^0,f,c
  1835  00179A  2E09               	decfsz	___aldiv@counter^0,f,c
  1836  00179C  EFAB  F00B         	goto	l2354
  1837  0017A0                     l2366:
  1838  0017A0  500A               	movf	___aldiv@sign^0,w,c
  1839  0017A2  B4D8               	btfsc	status,2,c
  1840  0017A4  EFD6  F00B         	goto	u2081
  1841  0017A8  EFD8  F00B         	goto	u2080
  1842  0017AC                     u2081:
  1843  0017AC  EFE0  F00B         	goto	l2370
  1844  0017B0                     u2080:
  1845  0017B0  1E0E               	comf	(___aldiv@quotient+3)^0,f,c
  1846  0017B2  1E0D               	comf	(___aldiv@quotient+2)^0,f,c
  1847  0017B4  1E0C               	comf	(___aldiv@quotient+1)^0,f,c
  1848  0017B6  6C0B               	negf	___aldiv@quotient^0,c
  1849  0017B8  0E00               	movlw	0
  1850  0017BA  220C               	addwfc	(___aldiv@quotient+1)^0,f,c
  1851  0017BC  220D               	addwfc	(___aldiv@quotient+2)^0,f,c
  1852  0017BE  220E               	addwfc	(___aldiv@quotient+3)^0,f,c
  1853  0017C0                     l2370:
  1854  0017C0  C00B  F001         	movff	___aldiv@quotient,?___aldiv
  1855  0017C4  C00C  F002         	movff	___aldiv@quotient+1,?___aldiv+1
  1856  0017C8  C00D  F003         	movff	___aldiv@quotient+2,?___aldiv+2
  1857  0017CC  C00E  F004         	movff	___aldiv@quotient+3,?___aldiv+3
  1858  0017D0  0012               	return		;funcret
  1859  0017D2                     __end_of___aldiv:
  1860                           	callstack 0
  1861                           
  1862 ;; *************** function _inverso *****************
  1863 ;; Defined at:
  1864 ;;		line 165 in file "main.c"
  1865 ;; Parameters:    Size  Location     Type
  1866 ;;		None
  1867 ;; Auto vars:     Size  Location     Type
  1868 ;;  x               1    3[COMRAM] unsigned char 
  1869 ;;  k               1    2[COMRAM] unsigned char 
  1870 ;; Return value:  Size  Location     Type
  1871 ;;                  1    wreg      void 
  1872 ;; Registers used:
  1873 ;;		wreg, status,2, status,0, cstack
  1874 ;; Tracked objects:
  1875 ;;		On entry : 0/0
  1876 ;;		On exit  : 0/0
  1877 ;;		Unchanged: 0/0
  1878 ;; Data sizes:     COMRAM   BANK0   BANK1   BANK2   BANK3   BANK4   BANK5
  1879 ;;      Params:         0       0       0       0       0       0       0
  1880 ;;      Locals:         2       0       0       0       0       0       0
  1881 ;;      Temps:          0       0       0       0       0       0       0
  1882 ;;      Totals:         2       0       0       0       0       0       0
  1883 ;;Total ram usage:        2 bytes
  1884 ;; Hardware stack levels used: 1
  1885 ;; Hardware stack levels required when called: 1
  1886 ;; This function calls:
  1887 ;;		_delay
  1888 ;; This function is called by:
  1889 ;;		_paradaEmergencial
  1890 ;; This function uses a non-reentrant model
  1891 ;;
  1892                           
  1893                           	psect	text10
  1894  00208E                     __ptext10:
  1895                           	callstack 0
  1896  00208E                     _inverso:
  1897                           	callstack 28
  1898  00208E                     
  1899                           ;main.c: 166:     delay();
  1900  00208E  EC5E  F010         	call	_delay	;wreg free
  1901  002092                     
  1902                           ;main.c: 167:     unsigned char k, x;;main.c: 168:     x = 0b10000000;
  1903  002092  0E80               	movlw	128
  1904  002094  6E04               	movwf	inverso@x^0,c
  1905  002096                     
  1906                           ;main.c: 169:     for (k = 0; k < 8; k++) {
  1907  002096  0E00               	movlw	0
  1908  002098  6E03               	movwf	inverso@k^0,c
  1909  00209A                     l2572:
  1910                           
  1911                           ;main.c: 170:         delay();
  1912  00209A  EC5E  F010         	call	_delay	;wreg free
  1913  00209E                     
  1914                           ;main.c: 171:         PORTD = x;
  1915  00209E  C004  FF83         	movff	inverso@x,3971	;volatile
  1916  0020A2                     
  1917                           ;main.c: 172:         x = x >> 1;
  1918  0020A2  90D8               	bcf	status,0,c
  1919  0020A4  3004               	rrcf	inverso@x^0,w,c
  1920  0020A6  6E04               	movwf	inverso@x^0,c
  1921  0020A8                     
  1922                           ;main.c: 173:     }
  1923  0020A8  2A03               	incf	inverso@k^0,f,c
  1924  0020AA  0E07               	movlw	7
  1925  0020AC  6403               	cpfsgt	inverso@k^0,c
  1926  0020AE  EF5B  F010         	goto	u2401
  1927  0020B2  EF5D  F010         	goto	u2400
  1928  0020B6                     u2401:
  1929  0020B6  EF4D  F010         	goto	l2572
  1930  0020BA                     u2400:
  1931  0020BA  0012               	return		;funcret
  1932  0020BC                     __end_of_inverso:
  1933                           	callstack 0
  1934                           
  1935 ;; *************** function _opcoes *****************
  1936 ;; Defined at:
  1937 ;;		line 76 in file "main.c"
  1938 ;; Parameters:    Size  Location     Type
  1939 ;;		None
  1940 ;; Auto vars:     Size  Location     Type
  1941 ;;  text           15    8[COMRAM] unsigned char [15]
  1942 ;;  text3          12   23[COMRAM] unsigned char [12]
  1943 ;;  text1          10   35[COMRAM] unsigned char [10]
  1944 ;;  text2           9   45[COMRAM] unsigned char [9]
  1945 ;; Return value:  Size  Location     Type
  1946 ;;                  1    wreg      void 
  1947 ;; Registers used:
  1948 ;;		wreg, fsr1l, fsr1h, fsr2l, fsr2h, status,2, status,0, cstack
  1949 ;; Tracked objects:
  1950 ;;		On entry : 0/0
  1951 ;;		On exit  : 0/0
  1952 ;;		Unchanged: 0/0
  1953 ;; Data sizes:     COMRAM   BANK0   BANK1   BANK2   BANK3   BANK4   BANK5
  1954 ;;      Params:         0       0       0       0       0       0       0
  1955 ;;      Locals:        46       0       0       0       0       0       0
  1956 ;;      Temps:          0       0       0       0       0       0       0
  1957 ;;      Totals:        46       0       0       0       0       0       0
  1958 ;;Total ram usage:       46 bytes
  1959 ;; Hardware stack levels used: 1
  1960 ;; Hardware stack levels required when called: 3
  1961 ;; This function calls:
  1962 ;;		_lcdCommand
  1963 ;;		_lcdData
  1964 ;; This function is called by:
  1965 ;;		_main
  1966 ;; This function uses a non-reentrant model
  1967 ;;
  1968                           
  1969                           	psect	text11
  1970  00159E                     __ptext11:
  1971                           	callstack 0
  1972  00159E                     _opcoes:
  1973                           	callstack 27
  1974  00159E                     
  1975                           ;main.c: 77:     lcdCommand(0x01);
  1976  00159E  0E01               	movlw	1
  1977  0015A0  ECCC  F00D         	call	_lcdCommand
  1978  0015A4                     
  1979                           ;main.c: 78:     char text[15] = "Escolha um voo:";
  1980  0015A4  EE20  F0C0         	lfsr	2,opcoes@F2442
  1981  0015A8  EE10  F009         	lfsr	1,opcoes@text
  1982  0015AC  0E0E               	movlw	14
  1983  0015AE                     u3011:
  1984  0015AE  CFDB FFE3          	movff	plusw2,plusw1
  1985  0015B2  06E8               	decf	wreg,f,c
  1986  0015B4  E2FC               	bc	u3011
  1987  0015B6                     
  1988                           ;main.c: 79:     char text1[10] = "1 - Disney ";
  1989  0015B6  EE20  F059         	lfsr	2,opcoes@F2444
  1990  0015BA  EE10  F024         	lfsr	1,opcoes@text1
  1991  0015BE  0E09               	movlw	9
  1992  0015C0                     u3021:
  1993  0015C0  CFDB FFE3          	movff	plusw2,plusw1
  1994  0015C4  06E8               	decf	wreg,f,c
  1995  0015C6  E2FC               	bc	u3021
  1996  0015C8                     
  1997                           ;main.c: 80:     char text2[9] = "2 - Paris";
  1998  0015C8  EE20  F063         	lfsr	2,opcoes@F2446
  1999  0015CC  EE10  F02E         	lfsr	1,opcoes@text2
  2000  0015D0  0E08               	movlw	8
  2001  0015D2                     u3031:
  2002  0015D2  CFDB FFE3          	movff	plusw2,plusw1
  2003  0015D6  06E8               	decf	wreg,f,c
  2004  0015D8  E2FC               	bc	u3031
  2005  0015DA                     
  2006                           ;main.c: 81:     char text3[12] = "3 - Hogwarts";
  2007  0015DA  EE20  F0CF         	lfsr	2,opcoes@F2448
  2008  0015DE  EE10  F018         	lfsr	1,opcoes@text3
  2009  0015E2  0E0B               	movlw	11
  2010  0015E4                     u3041:
  2011  0015E4  CFDB FFE3          	movff	plusw2,plusw1
  2012  0015E8  06E8               	decf	wreg,f,c
  2013  0015EA  E2FC               	bc	u3041
  2014                           
  2015                           ;main.c: 82:     lcdCommand(0x80 | (0));
  2016  0015EC  0E80               	movlw	128
  2017  0015EE  ECCC  F00D         	call	_lcdCommand
  2018  0015F2                     
  2019                           ;main.c: 83:     for (i = 0; i < 15; i++) {
  2020  0015F2  0E00               	movlw	0
  2021  0015F4  6E78               	movwf	_i^0,c
  2022  0015F6                     l2978:
  2023  0015F6  0E0E               	movlw	14
  2024  0015F8  6478               	cpfsgt	_i^0,c
  2025  0015FA  EF01  F00B         	goto	u3051
  2026  0015FE  EF03  F00B         	goto	u3050
  2027  001602                     u3051:
  2028  001602  EF05  F00B         	goto	l2982
  2029  001606                     u3050:
  2030  001606  EF11  F00B         	goto	l2988
  2031  00160A                     l2982:
  2032                           
  2033                           ;main.c: 84:         lcdData(text[i]);
  2034  00160A  0E09               	movlw	low opcoes@text
  2035  00160C  2478               	addwf	_i^0,w,c
  2036  00160E  6ED9               	movwf	fsr2l,c
  2037  001610  6ADA               	clrf	fsr2h,c
  2038  001612  0E00               	movlw	high opcoes@text
  2039  001614  22DA               	addwfc	fsr2h,f,c
  2040  001616  50DF               	movf	indf2,w,c
  2041  001618  ECDE  F00F         	call	_lcdData
  2042  00161C                     
  2043                           ;main.c: 85:     }
  2044  00161C  2A78               	incf	_i^0,f,c
  2045  00161E  EFFB  F00A         	goto	l2978
  2046  001622                     l2988:
  2047                           
  2048                           ;main.c: 86:     lcdCommand(0xC0 | (0));
  2049  001622  0EC0               	movlw	192
  2050  001624  ECCC  F00D         	call	_lcdCommand
  2051  001628                     
  2052                           ;main.c: 87:     for (i = 0; i < 10; i++) {
  2053  001628  0E00               	movlw	0
  2054  00162A  6E78               	movwf	_i^0,c
  2055  00162C                     l2992:
  2056  00162C  0E09               	movlw	9
  2057  00162E  6478               	cpfsgt	_i^0,c
  2058  001630  EF1C  F00B         	goto	u3061
  2059  001634  EF1E  F00B         	goto	u3060
  2060  001638                     u3061:
  2061  001638  EF20  F00B         	goto	l2996
  2062  00163C                     u3060:
  2063  00163C  EF2C  F00B         	goto	l3002
  2064  001640                     l2996:
  2065                           
  2066                           ;main.c: 88:         lcdData(text1[i]);
  2067  001640  0E24               	movlw	low opcoes@text1
  2068  001642  2478               	addwf	_i^0,w,c
  2069  001644  6ED9               	movwf	fsr2l,c
  2070  001646  6ADA               	clrf	fsr2h,c
  2071  001648  0E00               	movlw	high opcoes@text1
  2072  00164A  22DA               	addwfc	fsr2h,f,c
  2073  00164C  50DF               	movf	indf2,w,c
  2074  00164E  ECDE  F00F         	call	_lcdData
  2075  001652                     
  2076                           ;main.c: 89:     }
  2077  001652  2A78               	incf	_i^0,f,c
  2078  001654  EF16  F00B         	goto	l2992
  2079  001658                     l3002:
  2080                           
  2081                           ;main.c: 90:     lcdCommand(0x90 | (0));
  2082  001658  0E90               	movlw	144
  2083  00165A  ECCC  F00D         	call	_lcdCommand
  2084  00165E                     
  2085                           ;main.c: 91:     for (i = 0; i < 9; i++) {
  2086  00165E  0E00               	movlw	0
  2087  001660  6E78               	movwf	_i^0,c
  2088  001662                     l3006:
  2089  001662  0E08               	movlw	8
  2090  001664  6478               	cpfsgt	_i^0,c
  2091  001666  EF37  F00B         	goto	u3071
  2092  00166A  EF39  F00B         	goto	u3070
  2093  00166E                     u3071:
  2094  00166E  EF3B  F00B         	goto	l3010
  2095  001672                     u3070:
  2096  001672  EF47  F00B         	goto	l3016
  2097  001676                     l3010:
  2098                           
  2099                           ;main.c: 92:         lcdData(text2[i]);
  2100  001676  0E2E               	movlw	low opcoes@text2
  2101  001678  2478               	addwf	_i^0,w,c
  2102  00167A  6ED9               	movwf	fsr2l,c
  2103  00167C  6ADA               	clrf	fsr2h,c
  2104  00167E  0E00               	movlw	high opcoes@text2
  2105  001680  22DA               	addwfc	fsr2h,f,c
  2106  001682  50DF               	movf	indf2,w,c
  2107  001684  ECDE  F00F         	call	_lcdData
  2108  001688                     
  2109                           ;main.c: 93:     }
  2110  001688  2A78               	incf	_i^0,f,c
  2111  00168A  EF31  F00B         	goto	l3006
  2112  00168E                     l3016:
  2113                           
  2114                           ;main.c: 94:     lcdCommand(0xD0 | (0));
  2115  00168E  0ED0               	movlw	208
  2116  001690  ECCC  F00D         	call	_lcdCommand
  2117  001694                     
  2118                           ;main.c: 95:     for (i = 0; i < 12; i++) {
  2119  001694  0E00               	movlw	0
  2120  001696  6E78               	movwf	_i^0,c
  2121  001698                     l3020:
  2122  001698  0E0B               	movlw	11
  2123  00169A  6478               	cpfsgt	_i^0,c
  2124  00169C  EF52  F00B         	goto	u3081
  2125  0016A0  EF54  F00B         	goto	u3080
  2126  0016A4                     u3081:
  2127  0016A4  EF56  F00B         	goto	l3024
  2128  0016A8                     u3080:
  2129  0016A8  EF62  F00B         	goto	l211
  2130  0016AC                     l3024:
  2131                           
  2132                           ;main.c: 96:         lcdData(text3[i]);
  2133  0016AC  0E18               	movlw	low opcoes@text3
  2134  0016AE  2478               	addwf	_i^0,w,c
  2135  0016B0  6ED9               	movwf	fsr2l,c
  2136  0016B2  6ADA               	clrf	fsr2h,c
  2137  0016B4  0E00               	movlw	high opcoes@text3
  2138  0016B6  22DA               	addwfc	fsr2h,f,c
  2139  0016B8  50DF               	movf	indf2,w,c
  2140  0016BA  ECDE  F00F         	call	_lcdData
  2141  0016BE                     
  2142                           ;main.c: 97:     }
  2143  0016BE  2A78               	incf	_i^0,f,c
  2144  0016C0  EF4C  F00B         	goto	l3020
  2145  0016C4                     l211:
  2146  0016C4  0012               	return		;funcret
  2147  0016C6                     __end_of_opcoes:
  2148                           	callstack 0
  2149                           
  2150 ;; *************** function _lcdInit *****************
  2151 ;; Defined at:
  2152 ;;		line 100 in file "lcd.c"
  2153 ;; Parameters:    Size  Location     Type
  2154 ;;		None
  2155 ;; Auto vars:     Size  Location     Type
  2156 ;;		None
  2157 ;; Return value:  Size  Location     Type
  2158 ;;                  1    wreg      void 
  2159 ;; Registers used:
  2160 ;;		wreg, status,2, status,0, cstack
  2161 ;; Tracked objects:
  2162 ;;		On entry : 0/0
  2163 ;;		On exit  : 0/0
  2164 ;;		Unchanged: 0/0
  2165 ;; Data sizes:     COMRAM   BANK0   BANK1   BANK2   BANK3   BANK4   BANK5
  2166 ;;      Params:         0       0       0       0       0       0       0
  2167 ;;      Locals:         0       0       0       0       0       0       0
  2168 ;;      Temps:          0       0       0       0       0       0       0
  2169 ;;      Totals:         0       0       0       0       0       0       0
  2170 ;;Total ram usage:        0 bytes
  2171 ;; Hardware stack levels used: 1
  2172 ;; Hardware stack levels required when called: 3
  2173 ;; This function calls:
  2174 ;;		_Delay2ms
  2175 ;;		_lcdCommand
  2176 ;;		_pinMode
  2177 ;; This function is called by:
  2178 ;;		_main
  2179 ;; This function uses a non-reentrant model
  2180 ;;
  2181                           
  2182                           	psect	text12
  2183  001C94                     __ptext12:
  2184                           	callstack 0
  2185  001C94                     _lcdInit:
  2186                           	callstack 27
  2187  001C94                     
  2188                           ;lcd.c: 102:     pinMode(PIN_E2, 0);
  2189  001C94  0E00               	movlw	0
  2190  001C96  6E02               	movwf	(pinMode@pin+1)^0,c
  2191  001C98  0E22               	movlw	34
  2192  001C9A  6E01               	movwf	pinMode@pin^0,c
  2193  001C9C  0E00               	movlw	0
  2194  001C9E  6E04               	movwf	(pinMode@type+1)^0,c
  2195  001CA0  0E00               	movlw	0
  2196  001CA2  6E03               	movwf	pinMode@type^0,c
  2197  001CA4  EC69  F005         	call	_pinMode	;wreg free
  2198                           
  2199                           ;lcd.c: 103:     pinMode(PIN_E1, 0);
  2200  001CA8  0E00               	movlw	0
  2201  001CAA  6E02               	movwf	(pinMode@pin+1)^0,c
  2202  001CAC  0E21               	movlw	33
  2203  001CAE  6E01               	movwf	pinMode@pin^0,c
  2204  001CB0  0E00               	movlw	0
  2205  001CB2  6E04               	movwf	(pinMode@type+1)^0,c
  2206  001CB4  0E00               	movlw	0
  2207  001CB6  6E03               	movwf	pinMode@type^0,c
  2208  001CB8  EC69  F005         	call	_pinMode	;wreg free
  2209  001CBC                     
  2210                           ;lcd.c: 104:  TRISD = 0x00;
  2211  001CBC  0E00               	movlw	0
  2212  001CBE  6E95               	movwf	149,c	;volatile
  2213  001CC0                     
  2214                           ;lcd.c: 107:  Delay2ms(); Delay2ms(); Delay2ms(); Delay2ms(); Delay2ms();
  2215  001CC0  EC9B  F010         	call	_Delay2ms	;wreg free
  2216  001CC4  EC9B  F010         	call	_Delay2ms	;wreg free
  2217  001CC8  EC9B  F010         	call	_Delay2ms	;wreg free
  2218  001CCC  EC9B  F010         	call	_Delay2ms	;wreg free
  2219  001CD0  EC9B  F010         	call	_Delay2ms	;wreg free
  2220  001CD4                     
  2221                           ;lcd.c: 109:     lcdCommand(0x38);
  2222  001CD4  0E38               	movlw	56
  2223  001CD6  ECCC  F00D         	call	_lcdCommand
  2224  001CDA                     
  2225                           ;lcd.c: 110:     Delay2ms(); Delay2ms();
  2226  001CDA  EC9B  F010         	call	_Delay2ms	;wreg free
  2227  001CDE  EC9B  F010         	call	_Delay2ms	;wreg free
  2228  001CE2                     
  2229                           ;lcd.c: 111:     lcdCommand(0x38);
  2230  001CE2  0E38               	movlw	56
  2231  001CE4  ECCC  F00D         	call	_lcdCommand
  2232  001CE8                     
  2233                           ;lcd.c: 112:     Delay2ms();
  2234  001CE8  EC9B  F010         	call	_Delay2ms	;wreg free
  2235  001CEC                     
  2236                           ;lcd.c: 113:     lcdCommand(0x38);
  2237  001CEC  0E38               	movlw	56
  2238  001CEE  ECCC  F00D         	call	_lcdCommand
  2239  001CF2                     
  2240                           ;lcd.c: 115:     lcdCommand(0x38);
  2241  001CF2  0E38               	movlw	56
  2242  001CF4  ECCC  F00D         	call	_lcdCommand
  2243  001CF8                     
  2244                           ;lcd.c: 116:     lcdCommand(0x06);
  2245  001CF8  0E06               	movlw	6
  2246  001CFA  ECCC  F00D         	call	_lcdCommand
  2247  001CFE                     
  2248                           ;lcd.c: 119:     lcdCommand(0x0C);
  2249  001CFE  0E0C               	movlw	12
  2250  001D00  ECCC  F00D         	call	_lcdCommand
  2251  001D04                     
  2252                           ;lcd.c: 120:     lcdCommand(0x01);
  2253  001D04  0E01               	movlw	1
  2254  001D06  ECCC  F00D         	call	_lcdCommand
  2255  001D0A  0012               	return		;funcret
  2256  001D0C                     __end_of_lcdInit:
  2257                           	callstack 0
  2258                           
  2259 ;; *************** function _pinMode *****************
  2260 ;; Defined at:
  2261 ;;		line 54 in file "io.c"
  2262 ;; Parameters:    Size  Location     Type
  2263 ;;  pin             2    0[COMRAM] int 
  2264 ;;  type            2    2[COMRAM] int 
  2265 ;; Auto vars:     Size  Location     Type
  2266 ;;		None
  2267 ;; Return value:  Size  Location     Type
  2268 ;;                  1    wreg      void 
  2269 ;; Registers used:
  2270 ;;		wreg, status,2, status,0
  2271 ;; Tracked objects:
  2272 ;;		On entry : 0/0
  2273 ;;		On exit  : 0/0
  2274 ;;		Unchanged: 0/0
  2275 ;; Data sizes:     COMRAM   BANK0   BANK1   BANK2   BANK3   BANK4   BANK5
  2276 ;;      Params:         4       0       0       0       0       0       0
  2277 ;;      Locals:         0       0       0       0       0       0       0
  2278 ;;      Temps:          2       0       0       0       0       0       0
  2279 ;;      Totals:         6       0       0       0       0       0       0
  2280 ;;Total ram usage:        6 bytes
  2281 ;; Hardware stack levels used: 1
  2282 ;; This function calls:
  2283 ;;		Nothing
  2284 ;; This function is called by:
  2285 ;;		_lcdInit
  2286 ;;		_ssdInit
  2287 ;; This function uses a non-reentrant model
  2288 ;;
  2289                           
  2290                           	psect	text13
  2291  000AD2                     __ptext13:
  2292                           	callstack 0
  2293  000AD2                     _pinMode:
  2294                           	callstack 29
  2295  000AD2                     
  2296                           ;io.c: 56:     if(pin <8){
  2297  000AD2  BE02               	btfsc	(pinMode@pin+1)^0,7,c
  2298  000AD4  EF77  F005         	goto	u2120
  2299  000AD8  5002               	movf	(pinMode@pin+1)^0,w,c
  2300  000ADA  E107               	bnz	u2121
  2301  000ADC  0E08               	movlw	8
  2302  000ADE  5C01               	subwf	pinMode@pin^0,w,c
  2303  000AE0  B0D8               	btfsc	status,0,c
  2304  000AE2  EF75  F005         	goto	u2121
  2305  000AE6  EF77  F005         	goto	u2120
  2306  000AEA                     u2121:
  2307  000AEA  EFA1  F005         	goto	l2404
  2308  000AEE                     u2120:
  2309  000AEE                     
  2310                           ;io.c: 57:         if (type){ ((TRISA) |= (1<<(pin)));}
  2311  000AEE  5003               	movf	pinMode@type^0,w,c
  2312  000AF0  1004               	iorwf	(pinMode@type+1)^0,w,c
  2313  000AF2  B4D8               	btfsc	status,2,c
  2314  000AF4  EF7E  F005         	goto	u2131
  2315  000AF8  EF80  F005         	goto	u2130
  2316  000AFC                     u2131:
  2317  000AFC  EF90  F005         	goto	l2402
  2318  000B00                     u2130:
  2319  000B00  C001  F005         	movff	pinMode@pin,??_pinMode
  2320  000B04  0E01               	movlw	1
  2321  000B06  6E06               	movwf	(??_pinMode+1)^0,c
  2322  000B08  2A05               	incf	??_pinMode^0,f,c
  2323  000B0A  EF89  F005         	goto	u2144
  2324  000B0E                     u2145:
  2325  000B0E  90D8               	bcf	status,0,c
  2326  000B10  3606               	rlcf	(??_pinMode+1)^0,f,c
  2327  000B12                     u2144:
  2328  000B12  2E05               	decfsz	??_pinMode^0,f,c
  2329  000B14  EF87  F005         	goto	u2145
  2330  000B18  5006               	movf	(??_pinMode+1)^0,w,c
  2331  000B1A  1292               	iorwf	146,f,c	;volatile
  2332  000B1C  EF8F  F006         	goto	l86
  2333  000B20                     l2402:
  2334  000B20  C001  F005         	movff	pinMode@pin,??_pinMode
  2335  000B24  0E01               	movlw	1
  2336  000B26  6E06               	movwf	(??_pinMode+1)^0,c
  2337  000B28  2A05               	incf	??_pinMode^0,f,c
  2338  000B2A  EF99  F005         	goto	u2154
  2339  000B2E                     u2155:
  2340  000B2E  90D8               	bcf	status,0,c
  2341  000B30  3606               	rlcf	(??_pinMode+1)^0,f,c
  2342  000B32                     u2154:
  2343  000B32  2E05               	decfsz	??_pinMode^0,f,c
  2344  000B34  EF97  F005         	goto	u2155
  2345  000B38  5006               	movf	(??_pinMode+1)^0,w,c
  2346  000B3A  0AFF               	xorlw	255
  2347  000B3C  1692               	andwf	146,f,c	;volatile
  2348  000B3E  EF8F  F006         	goto	l86
  2349  000B42                     l2404:
  2350  000B42  BE02               	btfsc	(pinMode@pin+1)^0,7,c
  2351  000B44  EFAF  F005         	goto	u2160
  2352  000B48  5002               	movf	(pinMode@pin+1)^0,w,c
  2353  000B4A  E107               	bnz	u2161
  2354  000B4C  0E10               	movlw	16
  2355  000B4E  5C01               	subwf	pinMode@pin^0,w,c
  2356  000B50  B0D8               	btfsc	status,0,c
  2357  000B52  EFAD  F005         	goto	u2161
  2358  000B56  EFAF  F005         	goto	u2160
  2359  000B5A                     u2161:
  2360  000B5A  EFDD  F005         	goto	l2412
  2361  000B5E                     u2160:
  2362  000B5E                     
  2363                           ;io.c: 60:         if (type){ ((TRISB) |= (1<<(pin-8)));}
  2364  000B5E  5003               	movf	pinMode@type^0,w,c
  2365  000B60  1004               	iorwf	(pinMode@type+1)^0,w,c
  2366  000B62  B4D8               	btfsc	status,2,c
  2367  000B64  EFB6  F005         	goto	u2171
  2368  000B68  EFB8  F005         	goto	u2170
  2369  000B6C                     u2171:
  2370  000B6C  EFCA  F005         	goto	l2410
  2371  000B70                     u2170:
  2372  000B70  C001  F005         	movff	pinMode@pin,??_pinMode
  2373  000B74  0EF8               	movlw	-8
  2374  000B76  2605               	addwf	??_pinMode^0,f,c
  2375  000B78  0E01               	movlw	1
  2376  000B7A  6E06               	movwf	(??_pinMode+1)^0,c
  2377  000B7C  2A05               	incf	??_pinMode^0,f,c
  2378  000B7E  EFC3  F005         	goto	u2184
  2379  000B82                     u2185:
  2380  000B82  90D8               	bcf	status,0,c
  2381  000B84  3606               	rlcf	(??_pinMode+1)^0,f,c
  2382  000B86                     u2184:
  2383  000B86  2E05               	decfsz	??_pinMode^0,f,c
  2384  000B88  EFC1  F005         	goto	u2185
  2385  000B8C  5006               	movf	(??_pinMode+1)^0,w,c
  2386  000B8E  1293               	iorwf	147,f,c	;volatile
  2387  000B90  EF8F  F006         	goto	l86
  2388  000B94                     l2410:
  2389  000B94  C001  F005         	movff	pinMode@pin,??_pinMode
  2390  000B98  0EF8               	movlw	-8
  2391  000B9A  2605               	addwf	??_pinMode^0,f,c
  2392  000B9C  0E01               	movlw	1
  2393  000B9E  6E06               	movwf	(??_pinMode+1)^0,c
  2394  000BA0  2A05               	incf	??_pinMode^0,f,c
  2395  000BA2  EFD5  F005         	goto	u2194
  2396  000BA6                     u2195:
  2397  000BA6  90D8               	bcf	status,0,c
  2398  000BA8  3606               	rlcf	(??_pinMode+1)^0,f,c
  2399  000BAA                     u2194:
  2400  000BAA  2E05               	decfsz	??_pinMode^0,f,c
  2401  000BAC  EFD3  F005         	goto	u2195
  2402  000BB0  5006               	movf	(??_pinMode+1)^0,w,c
  2403  000BB2  0AFF               	xorlw	255
  2404  000BB4  1693               	andwf	147,f,c	;volatile
  2405  000BB6  EF8F  F006         	goto	l86
  2406  000BBA                     l2412:
  2407  000BBA  BE02               	btfsc	(pinMode@pin+1)^0,7,c
  2408  000BBC  EFEB  F005         	goto	u2200
  2409  000BC0  5002               	movf	(pinMode@pin+1)^0,w,c
  2410  000BC2  E107               	bnz	u2201
  2411  000BC4  0E18               	movlw	24
  2412  000BC6  5C01               	subwf	pinMode@pin^0,w,c
  2413  000BC8  B0D8               	btfsc	status,0,c
  2414  000BCA  EFE9  F005         	goto	u2201
  2415  000BCE  EFEB  F005         	goto	u2200
  2416  000BD2                     u2201:
  2417  000BD2  EF19  F006         	goto	l2420
  2418  000BD6                     u2200:
  2419  000BD6                     
  2420                           ;io.c: 63:         if (type){ ((TRISC) |= (1<<(pin-16)));}
  2421  000BD6  5003               	movf	pinMode@type^0,w,c
  2422  000BD8  1004               	iorwf	(pinMode@type+1)^0,w,c
  2423  000BDA  B4D8               	btfsc	status,2,c
  2424  000BDC  EFF2  F005         	goto	u2211
  2425  000BE0  EFF4  F005         	goto	u2210
  2426  000BE4                     u2211:
  2427  000BE4  EF06  F006         	goto	l2418
  2428  000BE8                     u2210:
  2429  000BE8  C001  F005         	movff	pinMode@pin,??_pinMode
  2430  000BEC  0EF0               	movlw	-16
  2431  000BEE  2605               	addwf	??_pinMode^0,f,c
  2432  000BF0  0E01               	movlw	1
  2433  000BF2  6E06               	movwf	(??_pinMode+1)^0,c
  2434  000BF4  2A05               	incf	??_pinMode^0,f,c
  2435  000BF6  EFFF  F005         	goto	u2224
  2436  000BFA                     u2225:
  2437  000BFA  90D8               	bcf	status,0,c
  2438  000BFC  3606               	rlcf	(??_pinMode+1)^0,f,c
  2439  000BFE                     u2224:
  2440  000BFE  2E05               	decfsz	??_pinMode^0,f,c
  2441  000C00  EFFD  F005         	goto	u2225
  2442  000C04  5006               	movf	(??_pinMode+1)^0,w,c
  2443  000C06  1294               	iorwf	148,f,c	;volatile
  2444  000C08  EF8F  F006         	goto	l86
  2445  000C0C                     l2418:
  2446  000C0C  C001  F005         	movff	pinMode@pin,??_pinMode
  2447  000C10  0EF0               	movlw	-16
  2448  000C12  2605               	addwf	??_pinMode^0,f,c
  2449  000C14  0E01               	movlw	1
  2450  000C16  6E06               	movwf	(??_pinMode+1)^0,c
  2451  000C18  2A05               	incf	??_pinMode^0,f,c
  2452  000C1A  EF11  F006         	goto	u2234
  2453  000C1E                     u2235:
  2454  000C1E  90D8               	bcf	status,0,c
  2455  000C20  3606               	rlcf	(??_pinMode+1)^0,f,c
  2456  000C22                     u2234:
  2457  000C22  2E05               	decfsz	??_pinMode^0,f,c
  2458  000C24  EF0F  F006         	goto	u2235
  2459  000C28  5006               	movf	(??_pinMode+1)^0,w,c
  2460  000C2A  0AFF               	xorlw	255
  2461  000C2C  1694               	andwf	148,f,c	;volatile
  2462  000C2E  EF8F  F006         	goto	l86
  2463  000C32                     l2420:
  2464  000C32  BE02               	btfsc	(pinMode@pin+1)^0,7,c
  2465  000C34  EF27  F006         	goto	u2240
  2466  000C38  5002               	movf	(pinMode@pin+1)^0,w,c
  2467  000C3A  E107               	bnz	u2241
  2468  000C3C  0E20               	movlw	32
  2469  000C3E  5C01               	subwf	pinMode@pin^0,w,c
  2470  000C40  B0D8               	btfsc	status,0,c
  2471  000C42  EF25  F006         	goto	u2241
  2472  000C46  EF27  F006         	goto	u2240
  2473  000C4A                     u2241:
  2474  000C4A  EF55  F006         	goto	l2428
  2475  000C4E                     u2240:
  2476  000C4E                     
  2477                           ;io.c: 66:         if (type){ ((TRISD) |= (1<<(pin-24)));}
  2478  000C4E  5003               	movf	pinMode@type^0,w,c
  2479  000C50  1004               	iorwf	(pinMode@type+1)^0,w,c
  2480  000C52  B4D8               	btfsc	status,2,c
  2481  000C54  EF2E  F006         	goto	u2251
  2482  000C58  EF30  F006         	goto	u2250
  2483  000C5C                     u2251:
  2484  000C5C  EF42  F006         	goto	l2426
  2485  000C60                     u2250:
  2486  000C60  C001  F005         	movff	pinMode@pin,??_pinMode
  2487  000C64  0EE8               	movlw	-24
  2488  000C66  2605               	addwf	??_pinMode^0,f,c
  2489  000C68  0E01               	movlw	1
  2490  000C6A  6E06               	movwf	(??_pinMode+1)^0,c
  2491  000C6C  2A05               	incf	??_pinMode^0,f,c
  2492  000C6E  EF3B  F006         	goto	u2264
  2493  000C72                     u2265:
  2494  000C72  90D8               	bcf	status,0,c
  2495  000C74  3606               	rlcf	(??_pinMode+1)^0,f,c
  2496  000C76                     u2264:
  2497  000C76  2E05               	decfsz	??_pinMode^0,f,c
  2498  000C78  EF39  F006         	goto	u2265
  2499  000C7C  5006               	movf	(??_pinMode+1)^0,w,c
  2500  000C7E  1295               	iorwf	149,f,c	;volatile
  2501  000C80  EF8F  F006         	goto	l86
  2502  000C84                     l2426:
  2503  000C84  C001  F005         	movff	pinMode@pin,??_pinMode
  2504  000C88  0EE8               	movlw	-24
  2505  000C8A  2605               	addwf	??_pinMode^0,f,c
  2506  000C8C  0E01               	movlw	1
  2507  000C8E  6E06               	movwf	(??_pinMode+1)^0,c
  2508  000C90  2A05               	incf	??_pinMode^0,f,c
  2509  000C92  EF4D  F006         	goto	u2274
  2510  000C96                     u2275:
  2511  000C96  90D8               	bcf	status,0,c
  2512  000C98  3606               	rlcf	(??_pinMode+1)^0,f,c
  2513  000C9A                     u2274:
  2514  000C9A  2E05               	decfsz	??_pinMode^0,f,c
  2515  000C9C  EF4B  F006         	goto	u2275
  2516  000CA0  5006               	movf	(??_pinMode+1)^0,w,c
  2517  000CA2  0AFF               	xorlw	255
  2518  000CA4  1695               	andwf	149,f,c	;volatile
  2519  000CA6  EF8F  F006         	goto	l86
  2520  000CAA                     l2428:
  2521  000CAA  BE02               	btfsc	(pinMode@pin+1)^0,7,c
  2522  000CAC  EF63  F006         	goto	u2280
  2523  000CB0  5002               	movf	(pinMode@pin+1)^0,w,c
  2524  000CB2  E107               	bnz	u2281
  2525  000CB4  0E28               	movlw	40
  2526  000CB6  5C01               	subwf	pinMode@pin^0,w,c
  2527  000CB8  B0D8               	btfsc	status,0,c
  2528  000CBA  EF61  F006         	goto	u2281
  2529  000CBE  EF63  F006         	goto	u2280
  2530  000CC2                     u2281:
  2531  000CC2  EF8F  F006         	goto	l86
  2532  000CC6                     u2280:
  2533  000CC6                     
  2534                           ;io.c: 69:         if (type){ ((TRISE) |= (1<<(pin-32)));}
  2535  000CC6  5003               	movf	pinMode@type^0,w,c
  2536  000CC8  1004               	iorwf	(pinMode@type+1)^0,w,c
  2537  000CCA  B4D8               	btfsc	status,2,c
  2538  000CCC  EF6A  F006         	goto	u2291
  2539  000CD0  EF6C  F006         	goto	u2290
  2540  000CD4                     u2291:
  2541  000CD4  EF7E  F006         	goto	l2434
  2542  000CD8                     u2290:
  2543  000CD8  C001  F005         	movff	pinMode@pin,??_pinMode
  2544  000CDC  0EE0               	movlw	-32
  2545  000CDE  2605               	addwf	??_pinMode^0,f,c
  2546  000CE0  0E01               	movlw	1
  2547  000CE2  6E06               	movwf	(??_pinMode+1)^0,c
  2548  000CE4  2A05               	incf	??_pinMode^0,f,c
  2549  000CE6  EF77  F006         	goto	u2304
  2550  000CEA                     u2305:
  2551  000CEA  90D8               	bcf	status,0,c
  2552  000CEC  3606               	rlcf	(??_pinMode+1)^0,f,c
  2553  000CEE                     u2304:
  2554  000CEE  2E05               	decfsz	??_pinMode^0,f,c
  2555  000CF0  EF75  F006         	goto	u2305
  2556  000CF4  5006               	movf	(??_pinMode+1)^0,w,c
  2557  000CF6  1296               	iorwf	150,f,c	;volatile
  2558  000CF8  EF8F  F006         	goto	l86
  2559  000CFC                     l2434:
  2560  000CFC  C001  F005         	movff	pinMode@pin,??_pinMode
  2561  000D00  0EE0               	movlw	-32
  2562  000D02  2605               	addwf	??_pinMode^0,f,c
  2563  000D04  0E01               	movlw	1
  2564  000D06  6E06               	movwf	(??_pinMode+1)^0,c
  2565  000D08  2A05               	incf	??_pinMode^0,f,c
  2566  000D0A  EF89  F006         	goto	u2314
  2567  000D0E                     u2315:
  2568  000D0E  90D8               	bcf	status,0,c
  2569  000D10  3606               	rlcf	(??_pinMode+1)^0,f,c
  2570  000D12                     u2314:
  2571  000D12  2E05               	decfsz	??_pinMode^0,f,c
  2572  000D14  EF87  F006         	goto	u2315
  2573  000D18  5006               	movf	(??_pinMode+1)^0,w,c
  2574  000D1A  0AFF               	xorlw	255
  2575  000D1C  1696               	andwf	150,f,c	;volatile
  2576  000D1E                     l86:
  2577  000D1E  0012               	return		;funcret
  2578  000D20                     __end_of_pinMode:
  2579                           	callstack 0
  2580                           
  2581 ;; *************** function _kpRead *****************
  2582 ;; Defined at:
  2583 ;;		line 35 in file "keypad.c"
  2584 ;; Parameters:    Size  Location     Type
  2585 ;;		None
  2586 ;; Auto vars:     Size  Location     Type
  2587 ;;		None
  2588 ;; Return value:  Size  Location     Type
  2589 ;;                  2    0[COMRAM] unsigned int 
  2590 ;; Registers used:
  2591 ;;		None
  2592 ;; Tracked objects:
  2593 ;;		On entry : 0/0
  2594 ;;		On exit  : 0/0
  2595 ;;		Unchanged: 0/0
  2596 ;; Data sizes:     COMRAM   BANK0   BANK1   BANK2   BANK3   BANK4   BANK5
  2597 ;;      Params:         2       0       0       0       0       0       0
  2598 ;;      Locals:         0       0       0       0       0       0       0
  2599 ;;      Temps:          0       0       0       0       0       0       0
  2600 ;;      Totals:         2       0       0       0       0       0       0
  2601 ;;Total ram usage:        2 bytes
  2602 ;; Hardware stack levels used: 1
  2603 ;; This function calls:
  2604 ;;		Nothing
  2605 ;; This function is called by:
  2606 ;;		_main
  2607 ;; This function uses a non-reentrant model
  2608 ;;
  2609                           
  2610                           	psect	text14
  2611  002198                     __ptext14:
  2612                           	callstack 0
  2613  002198                     _kpRead:
  2614                           	callstack 30
  2615  002198                     
  2616                           ;keypad.c: 36:     return valor;
  2617  002198  C070  F001         	movff	_valor,?_kpRead
  2618  00219C  C071  F002         	movff	_valor+1,?_kpRead+1
  2619  0021A0  0012               	return		;funcret
  2620  0021A2                     __end_of_kpRead:
  2621                           	callstack 0
  2622                           
  2623 ;; *************** function _kpInit *****************
  2624 ;; Defined at:
  2625 ;;		line 87 in file "keypad.c"
  2626 ;; Parameters:    Size  Location     Type
  2627 ;;		None
  2628 ;; Auto vars:     Size  Location     Type
  2629 ;;		None
  2630 ;; Return value:  Size  Location     Type
  2631 ;;                  1    wreg      void 
  2632 ;; Registers used:
  2633 ;;		wreg, status,2, status,0
  2634 ;; Tracked objects:
  2635 ;;		On entry : 0/0
  2636 ;;		On exit  : 0/0
  2637 ;;		Unchanged: 0/0
  2638 ;; Data sizes:     COMRAM   BANK0   BANK1   BANK2   BANK3   BANK4   BANK5
  2639 ;;      Params:         0       0       0       0       0       0       0
  2640 ;;      Locals:         0       0       0       0       0       0       0
  2641 ;;      Temps:          0       0       0       0       0       0       0
  2642 ;;      Totals:         0       0       0       0       0       0       0
  2643 ;;Total ram usage:        0 bytes
  2644 ;; Hardware stack levels used: 1
  2645 ;; This function calls:
  2646 ;;		Nothing
  2647 ;; This function is called by:
  2648 ;;		_main
  2649 ;; This function uses a non-reentrant model
  2650 ;;
  2651                           
  2652                           	psect	text15
  2653  0021A2                     __ptext15:
  2654                           	callstack 0
  2655  0021A2                     _kpInit:
  2656                           	callstack 30
  2657  0021A2                     
  2658                           ;keypad.c: 89:     TRISB &= 0x07;
  2659  0021A2  0E07               	movlw	7
  2660  0021A4  1693               	andwf	147,f,c	;volatile
  2661                           
  2662                           ;keypad.c: 91:     TRISD |= 0x0f;
  2663  0021A6  0E0F               	movlw	15
  2664  0021A8  1295               	iorwf	149,f,c	;volatile
  2665  0021AA  0012               	return		;funcret
  2666  0021AC                     __end_of_kpInit:
  2667                           	callstack 0
  2668                           
  2669 ;; *************** function _kpDebounce *****************
  2670 ;; Defined at:
  2671 ;;		line 39 in file "keypad.c"
  2672 ;; Parameters:    Size  Location     Type
  2673 ;;		None
  2674 ;; Auto vars:     Size  Location     Type
  2675 ;;  k               2    6[COMRAM] int 
  2676 ;;  i               1    9[COMRAM] unsigned char 
  2677 ;;  j               1    8[COMRAM] unsigned char 
  2678 ;;  old_D           1    5[COMRAM] unsigned char 
  2679 ;; Return value:  Size  Location     Type
  2680 ;;                  1    wreg      void 
  2681 ;; Registers used:
  2682 ;;		wreg, status,2, status,0, prodl, prodh
  2683 ;; Tracked objects:
  2684 ;;		On entry : 0/0
  2685 ;;		On exit  : 0/0
  2686 ;;		Unchanged: 0/0
  2687 ;; Data sizes:     COMRAM   BANK0   BANK1   BANK2   BANK3   BANK4   BANK5
  2688 ;;      Params:         0       0       0       0       0       0       0
  2689 ;;      Locals:         5       0       0       0       0       0       0
  2690 ;;      Temps:          5       0       0       0       0       0       0
  2691 ;;      Totals:        10       0       0       0       0       0       0
  2692 ;;Total ram usage:       10 bytes
  2693 ;; Hardware stack levels used: 1
  2694 ;; This function calls:
  2695 ;;		Nothing
  2696 ;; This function is called by:
  2697 ;;		_main
  2698 ;; This function uses a non-reentrant model
  2699 ;;
  2700                           
  2701                           	psect	text16
  2702  0012D4                     __ptext16:
  2703                           	callstack 0
  2704  0012D4                     _kpDebounce:
  2705                           	callstack 30
  2706  0012D4                     
  2707                           ;keypad.c: 40:     unsigned char i, j;;keypad.c: 41:     static unsigned char tempo;;key
      +                          pad.c: 42:     static unsigned int valorNovo = 0x0000;;keypad.c: 43:     static unsigned
      +                           int valorAntigo = 0x0000;;keypad.c: 46:     unsigned char old_D;;keypad.c: 47:     old_
      +                          D = PORTD;
  2708  0012D4  CF83 F006          	movff	3971,kpDebounce@old_D	;volatile
  2709  0012D8                     
  2710                           ;keypad.c: 51:     TRISD |= 0x0f;
  2711  0012D8  0E0F               	movlw	15
  2712  0012DA  1295               	iorwf	149,f,c	;volatile
  2713  0012DC                     
  2714                           ;keypad.c: 53:     for (i = 0; i < 3; i++) {
  2715  0012DC  0E00               	movlw	0
  2716  0012DE  6E0A               	movwf	kpDebounce@i^0,c
  2717  0012E0                     l3150:
  2718                           
  2719                           ;keypad.c: 55:         TRISB &= 0xF8;
  2720  0012E0  0EF8               	movlw	248
  2721  0012E2  1693               	andwf	147,f,c	;volatile
  2722                           
  2723                           ;keypad.c: 57:         ((TRISB) |= (1<<(i)));
  2724  0012E4  C00A  F001         	movff	kpDebounce@i,??_kpDebounce
  2725  0012E8  0E01               	movlw	1
  2726  0012EA  6E02               	movwf	(??_kpDebounce+1)^0,c
  2727  0012EC  2A01               	incf	??_kpDebounce^0,f,c
  2728  0012EE  EF7B  F009         	goto	u3194
  2729  0012F2                     u3195:
  2730  0012F2  90D8               	bcf	status,0,c
  2731  0012F4  3602               	rlcf	(??_kpDebounce+1)^0,f,c
  2732  0012F6                     u3194:
  2733  0012F6  2E01               	decfsz	??_kpDebounce^0,f,c
  2734  0012F8  EF79  F009         	goto	u3195
  2735  0012FC  5002               	movf	(??_kpDebounce+1)^0,w,c
  2736  0012FE  1293               	iorwf	147,f,c	;volatile
  2737                           
  2738                           ;keypad.c: 59:         PORTB |= 0x07;
  2739  001300  0E07               	movlw	7
  2740  001302  1281               	iorwf	129,f,c	;volatile
  2741                           
  2742                           ;keypad.c: 60:         ((PORTB) &= ~(1<<(i)));
  2743  001304  C00A  F001         	movff	kpDebounce@i,??_kpDebounce
  2744  001308  0E01               	movlw	1
  2745  00130A  6E02               	movwf	(??_kpDebounce+1)^0,c
  2746  00130C  2A01               	incf	??_kpDebounce^0,f,c
  2747  00130E  EF8B  F009         	goto	u3204
  2748  001312                     u3205:
  2749  001312  90D8               	bcf	status,0,c
  2750  001314  3602               	rlcf	(??_kpDebounce+1)^0,f,c
  2751  001316                     u3204:
  2752  001316  2E01               	decfsz	??_kpDebounce^0,f,c
  2753  001318  EF89  F009         	goto	u3205
  2754  00131C  5002               	movf	(??_kpDebounce+1)^0,w,c
  2755  00131E  0AFF               	xorlw	255
  2756  001320  1681               	andwf	129,f,c	;volatile
  2757  001322                     
  2758                           ;keypad.c: 63:         for (int k = 0; k < 10; k++);
  2759  001322  0E00               	movlw	0
  2760  001324  6E08               	movwf	(kpDebounce@k+1)^0,c
  2761  001326  0E00               	movlw	0
  2762  001328  6E07               	movwf	kpDebounce@k^0,c
  2763  00132A                     l3158:
  2764  00132A  4A07               	infsnz	kpDebounce@k^0,f,c
  2765  00132C  2A08               	incf	(kpDebounce@k+1)^0,f,c
  2766  00132E  BE08               	btfsc	(kpDebounce@k+1)^0,7,c
  2767  001330  EFA3  F009         	goto	u3211
  2768  001334  5008               	movf	(kpDebounce@k+1)^0,w,c
  2769  001336  E109               	bnz	u3210
  2770  001338  0E0A               	movlw	10
  2771  00133A  5C07               	subwf	kpDebounce@k^0,w,c
  2772  00133C  A0D8               	btfss	status,0,c
  2773  00133E  EFA3  F009         	goto	u3211
  2774  001342  EFA5  F009         	goto	u3210
  2775  001346                     u3211:
  2776  001346  EF95  F009         	goto	l3158
  2777  00134A                     u3210:
  2778  00134A                     
  2779                           ;keypad.c: 66:         for (j = 0; j < 4; j++) {
  2780  00134A  0E00               	movlw	0
  2781  00134C  6E09               	movwf	kpDebounce@j^0,c
  2782  00134E                     l3168:
  2783                           
  2784                           ;keypad.c: 67:             if (!((PORTD) & (1<<(j)))) {
  2785  00134E  C009  F001         	movff	kpDebounce@j,??_kpDebounce
  2786  001352  0E01               	movlw	1
  2787  001354  6E02               	movwf	(??_kpDebounce+1)^0,c
  2788  001356  2A01               	incf	??_kpDebounce^0,f,c
  2789  001358  EFB0  F009         	goto	u3224
  2790  00135C                     u3225:
  2791  00135C  90D8               	bcf	status,0,c
  2792  00135E  3602               	rlcf	(??_kpDebounce+1)^0,f,c
  2793  001360                     u3224:
  2794  001360  2E01               	decfsz	??_kpDebounce^0,f,c
  2795  001362  EFAE  F009         	goto	u3225
  2796  001366  5002               	movf	(??_kpDebounce+1)^0,w,c
  2797  001368  1483               	andwf	131,w,c	;volatile
  2798  00136A  0900               	iorlw	0
  2799  00136C  A4D8               	btfss	status,2,c
  2800  00136E  EFBB  F009         	goto	u3231
  2801  001372  EFBD  F009         	goto	u3230
  2802  001376                     u3231:
  2803  001376  EFD5  F009         	goto	l3172
  2804  00137A                     u3230:
  2805  00137A                     
  2806                           ;keypad.c: 68:                 ((valorNovo) |= (1<<((i * 4) + j)));
  2807  00137A  500A               	movf	kpDebounce@i^0,w,c
  2808  00137C  0D04               	mullw	4
  2809  00137E  50F3               	movf	243,w,c
  2810  001380  2409               	addwf	kpDebounce@j^0,w,c
  2811  001382  6E01               	movwf	??_kpDebounce^0,c
  2812  001384  0E01               	movlw	1
  2813  001386  6E02               	movwf	(??_kpDebounce+1)^0,c
  2814  001388  0E00               	movlw	0
  2815  00138A  6E03               	movwf	(??_kpDebounce+2)^0,c
  2816  00138C  2A01               	incf	??_kpDebounce^0,f,c
  2817  00138E  EFCC  F009         	goto	u3244
  2818  001392                     u3245:
  2819  001392  90D8               	bcf	status,0,c
  2820  001394  3602               	rlcf	(??_kpDebounce+1)^0,f,c
  2821  001396  3603               	rlcf	(??_kpDebounce+2)^0,f,c
  2822  001398                     u3244:
  2823  001398  2E01               	decfsz	??_kpDebounce^0,f,c
  2824  00139A  EFC9  F009         	goto	u3245
  2825  00139E  5002               	movf	(??_kpDebounce+1)^0,w,c
  2826  0013A0  126E               	iorwf	kpDebounce@valorNovo^0,f,c
  2827  0013A2  5003               	movf	(??_kpDebounce+2)^0,w,c
  2828  0013A4  126F               	iorwf	(kpDebounce@valorNovo+1)^0,f,c
  2829                           
  2830                           ;keypad.c: 69:             } else {
  2831  0013A6  EFEF  F009         	goto	l3174
  2832  0013AA                     l3172:
  2833                           
  2834                           ;keypad.c: 70:                 ((valorNovo) &= ~(1<<((i * 4) + j)));
  2835  0013AA  500A               	movf	kpDebounce@i^0,w,c
  2836  0013AC  0D04               	mullw	4
  2837  0013AE  50F3               	movf	243,w,c
  2838  0013B0  2409               	addwf	kpDebounce@j^0,w,c
  2839  0013B2  6E01               	movwf	??_kpDebounce^0,c
  2840  0013B4  0E01               	movlw	1
  2841  0013B6  6E02               	movwf	(??_kpDebounce+1)^0,c
  2842  0013B8  0E00               	movlw	0
  2843  0013BA  6E03               	movwf	(??_kpDebounce+2)^0,c
  2844  0013BC  2A01               	incf	??_kpDebounce^0,f,c
  2845  0013BE  EFE4  F009         	goto	u3254
  2846  0013C2                     u3255:
  2847  0013C2  90D8               	bcf	status,0,c
  2848  0013C4  3602               	rlcf	(??_kpDebounce+1)^0,f,c
  2849  0013C6  3603               	rlcf	(??_kpDebounce+2)^0,f,c
  2850  0013C8                     u3254:
  2851  0013C8  2E01               	decfsz	??_kpDebounce^0,f,c
  2852  0013CA  EFE1  F009         	goto	u3255
  2853  0013CE  1C02               	comf	(??_kpDebounce+1)^0,w,c
  2854  0013D0  6E04               	movwf	(??_kpDebounce+3)^0,c
  2855  0013D2  1C03               	comf	(??_kpDebounce+2)^0,w,c
  2856  0013D4  6E05               	movwf	(??_kpDebounce+4)^0,c
  2857  0013D6  5004               	movf	(??_kpDebounce+3)^0,w,c
  2858  0013D8  166E               	andwf	kpDebounce@valorNovo^0,f,c
  2859  0013DA  5005               	movf	(??_kpDebounce+4)^0,w,c
  2860  0013DC  166F               	andwf	(kpDebounce@valorNovo+1)^0,f,c
  2861  0013DE                     l3174:
  2862                           
  2863                           ;keypad.c: 72:         }
  2864  0013DE  2A09               	incf	kpDebounce@j^0,f,c
  2865  0013E0  0E03               	movlw	3
  2866  0013E2  6409               	cpfsgt	kpDebounce@j^0,c
  2867  0013E4  EFF6  F009         	goto	u3261
  2868  0013E8  EFF8  F009         	goto	u3260
  2869  0013EC                     u3261:
  2870  0013EC  EFA7  F009         	goto	l3168
  2871  0013F0                     u3260:
  2872  0013F0                     
  2873                           ;keypad.c: 73:     }
  2874  0013F0  2A0A               	incf	kpDebounce@i^0,f,c
  2875  0013F2  0E02               	movlw	2
  2876  0013F4  640A               	cpfsgt	kpDebounce@i^0,c
  2877  0013F6  EFFF  F009         	goto	u3271
  2878  0013FA  EF01  F00A         	goto	u3270
  2879  0013FE                     u3271:
  2880  0013FE  EF70  F009         	goto	l3150
  2881  001402                     u3270:
  2882  001402                     
  2883                           ;keypad.c: 74:     if (valorAntigo == valorNovo) {
  2884  001402  506E               	movf	kpDebounce@valorNovo^0,w,c
  2885  001404  186C               	xorwf	kpDebounce@valorAntigo^0,w,c
  2886  001406  E107               	bnz	u3281
  2887  001408  506F               	movf	(kpDebounce@valorNovo+1)^0,w,c
  2888  00140A  186D               	xorwf	(kpDebounce@valorAntigo+1)^0,w,c
  2889  00140C  A4D8               	btfss	status,2,c
  2890  00140E  EF0B  F00A         	goto	u3281
  2891  001412  EF0D  F00A         	goto	u3280
  2892  001416                     u3281:
  2893  001416  EF10  F00A         	goto	l3186
  2894  00141A                     u3280:
  2895  00141A                     
  2896                           ;keypad.c: 75:         tempo--;
  2897  00141A  0677               	decf	kpDebounce@tempo^0,f,c
  2898                           
  2899                           ;keypad.c: 76:     } else {
  2900  00141C  EF16  F00A         	goto	l304
  2901  001420                     l3186:
  2902                           
  2903                           ;keypad.c: 77:         tempo = 10;
  2904  001420  0E0A               	movlw	10
  2905  001422  6E77               	movwf	kpDebounce@tempo^0,c
  2906  001424                     
  2907                           ;keypad.c: 78:         valorAntigo = valorNovo;
  2908  001424  C06E  F06C         	movff	kpDebounce@valorNovo,kpDebounce@valorAntigo
  2909  001428  C06F  F06D         	movff	kpDebounce@valorNovo+1,kpDebounce@valorAntigo+1
  2910  00142C                     l304:
  2911                           
  2912                           ;keypad.c: 80:     if (tempo == 0) {
  2913  00142C  5077               	movf	kpDebounce@tempo^0,w,c
  2914  00142E  A4D8               	btfss	status,2,c
  2915  001430  EF1C  F00A         	goto	u3291
  2916  001434  EF1E  F00A         	goto	u3290
  2917  001438                     u3291:
  2918  001438  EF22  F00A         	goto	l305
  2919  00143C                     u3290:
  2920  00143C                     
  2921                           ;keypad.c: 81:         valor = valorAntigo;
  2922  00143C  C06C  F070         	movff	kpDebounce@valorAntigo,_valor
  2923  001440  C06D  F071         	movff	kpDebounce@valorAntigo+1,_valor+1
  2924  001444                     l305:
  2925                           
  2926                           ;keypad.c: 83:     PORTD = old_D;
  2927  001444  C006  FF83         	movff	kpDebounce@old_D,3971	;volatile
  2928  001448                     
  2929                           ;keypad.c: 84:     TRISD = 0x00;
  2930  001448  0E00               	movlw	0
  2931  00144A  6E95               	movwf	149,c	;volatile
  2932  00144C  0012               	return		;funcret
  2933  00144E                     __end_of_kpDebounce:
  2934                           	callstack 0
  2935                           
  2936 ;; *************** function _introducao *****************
  2937 ;; Defined at:
  2938 ;;		line 57 in file "main.c"
  2939 ;; Parameters:    Size  Location     Type
  2940 ;;		None
  2941 ;; Auto vars:     Size  Location     Type
  2942 ;;  text2          16   12[COMRAM] unsigned char [16]
  2943 ;;  text           12   28[COMRAM] unsigned char [12]
  2944 ;; Return value:  Size  Location     Type
  2945 ;;                  1    wreg      void 
  2946 ;; Registers used:
  2947 ;;		wreg, fsr1l, fsr1h, fsr2l, fsr2h, status,2, status,0, cstack
  2948 ;; Tracked objects:
  2949 ;;		On entry : 0/0
  2950 ;;		On exit  : 0/0
  2951 ;;		Unchanged: 0/0
  2952 ;; Data sizes:     COMRAM   BANK0   BANK1   BANK2   BANK3   BANK4   BANK5
  2953 ;;      Params:         0       0       0       0       0       0       0
  2954 ;;      Locals:        28       0       0       0       0       0       0
  2955 ;;      Temps:          0       0       0       0       0       0       0
  2956 ;;      Totals:        28       0       0       0       0       0       0
  2957 ;;Total ram usage:       28 bytes
  2958 ;; Hardware stack levels used: 1
  2959 ;; Hardware stack levels required when called: 4
  2960 ;; This function calls:
  2961 ;;		_delay
  2962 ;;		_lcdCommand
  2963 ;;		_lcdData
  2964 ;;		_shift
  2965 ;; This function is called by:
  2966 ;;		_main
  2967 ;; This function uses a non-reentrant model
  2968 ;;
  2969                           
  2970                           	psect	text17
  2971  00199A                     __ptext17:
  2972                           	callstack 0
  2973  00199A                     _introducao:
  2974                           	callstack 26
  2975  00199A                     
  2976                           ;main.c: 58:     lcdCommand(0x01);
  2977  00199A  0E01               	movlw	1
  2978  00199C  ECCC  F00D         	call	_lcdCommand
  2979  0019A0                     
  2980                           ;main.c: 59:     char text[12] = "Bem Vindo ao";
  2981  0019A0  EE20  F0DB         	lfsr	2,introducao@F2437
  2982  0019A4  EE10  F01D         	lfsr	1,introducao@text
  2983  0019A8  0E0B               	movlw	11
  2984  0019AA                     u2971:
  2985  0019AA  CFDB FFE3          	movff	plusw2,plusw1
  2986  0019AE  06E8               	decf	wreg,f,c
  2987  0019B0  E2FC               	bc	u2971
  2988  0019B2                     
  2989                           ;main.c: 60:     char text2[16] = "Othon CIA Voo";
  2990  0019B2  EE20  F0B0         	lfsr	2,introducao@F2439
  2991  0019B6  EE10  F00D         	lfsr	1,introducao@text2
  2992  0019BA  0E0F               	movlw	15
  2993  0019BC                     u2981:
  2994  0019BC  CFDB FFE3          	movff	plusw2,plusw1
  2995  0019C0  06E8               	decf	wreg,f,c
  2996  0019C2  E2FC               	bc	u2981
  2997                           
  2998                           ;main.c: 61:     lcdCommand(0xC0 | (0));
  2999  0019C4  0EC0               	movlw	192
  3000  0019C6  ECCC  F00D         	call	_lcdCommand
  3001  0019CA                     
  3002                           ;main.c: 62:     for (i = 0; i < 12; i++) {
  3003  0019CA  0E00               	movlw	0
  3004  0019CC  6E78               	movwf	_i^0,c
  3005  0019CE                     l2940:
  3006  0019CE  0E0B               	movlw	11
  3007  0019D0  6478               	cpfsgt	_i^0,c
  3008  0019D2  EFED  F00C         	goto	u2991
  3009  0019D6  EFEF  F00C         	goto	u2990
  3010  0019DA                     u2991:
  3011  0019DA  EFF1  F00C         	goto	l2944
  3012  0019DE                     u2990:
  3013  0019DE  EFFD  F00C         	goto	l2950
  3014  0019E2                     l2944:
  3015                           
  3016                           ;main.c: 63:         lcdData(text[i]);
  3017  0019E2  0E1D               	movlw	low introducao@text
  3018  0019E4  2478               	addwf	_i^0,w,c
  3019  0019E6  6ED9               	movwf	fsr2l,c
  3020  0019E8  6ADA               	clrf	fsr2h,c
  3021  0019EA  0E00               	movlw	high introducao@text
  3022  0019EC  22DA               	addwfc	fsr2h,f,c
  3023  0019EE  50DF               	movf	indf2,w,c
  3024  0019F0  ECDE  F00F         	call	_lcdData
  3025  0019F4                     
  3026                           ;main.c: 64:     }
  3027  0019F4  2A78               	incf	_i^0,f,c
  3028  0019F6  EFE7  F00C         	goto	l2940
  3029  0019FA                     l2950:
  3030                           
  3031                           ;main.c: 65:     lcdCommand(0x90 | (0));
  3032  0019FA  0E90               	movlw	144
  3033  0019FC  ECCC  F00D         	call	_lcdCommand
  3034  001A00                     
  3035                           ;main.c: 66:     for (i = 0; i < 13; i++) {
  3036  001A00  0E00               	movlw	0
  3037  001A02  6E78               	movwf	_i^0,c
  3038  001A04                     l2954:
  3039  001A04  0E0C               	movlw	12
  3040  001A06  6478               	cpfsgt	_i^0,c
  3041  001A08  EF08  F00D         	goto	u3001
  3042  001A0C  EF0A  F00D         	goto	u3000
  3043  001A10                     u3001:
  3044  001A10  EF0C  F00D         	goto	l2958
  3045  001A14                     u3000:
  3046  001A14  EF18  F00D         	goto	l2964
  3047  001A18                     l2958:
  3048                           
  3049                           ;main.c: 67:         lcdData(text2[i]);
  3050  001A18  0E0D               	movlw	low introducao@text2
  3051  001A1A  2478               	addwf	_i^0,w,c
  3052  001A1C  6ED9               	movwf	fsr2l,c
  3053  001A1E  6ADA               	clrf	fsr2h,c
  3054  001A20  0E00               	movlw	high introducao@text2
  3055  001A22  22DA               	addwfc	fsr2h,f,c
  3056  001A24  50DF               	movf	indf2,w,c
  3057  001A26  ECDE  F00F         	call	_lcdData
  3058  001A2A                     
  3059                           ;main.c: 68:     }
  3060  001A2A  2A78               	incf	_i^0,f,c
  3061  001A2C  EF02  F00D         	goto	l2954
  3062  001A30                     l2964:
  3063                           
  3064                           ;main.c: 70:     delay();
  3065  001A30  EC5E  F010         	call	_delay	;wreg free
  3066                           
  3067                           ;main.c: 71:     shift(400, 0);
  3068  001A34  0E01               	movlw	1
  3069  001A36  6E0A               	movwf	(shift@t+1)^0,c
  3070  001A38  0E90               	movlw	144
  3071  001A3A  6E09               	movwf	shift@t^0,c
  3072  001A3C  0E00               	movlw	0
  3073  001A3E  6E0C               	movwf	(shift@op+1)^0,c
  3074  001A40  0E00               	movlw	0
  3075  001A42  6E0B               	movwf	shift@op^0,c
  3076  001A44  ECF6  F00E         	call	_shift	;wreg free
  3077  001A48  0012               	return		;funcret
  3078  001A4A                     __end_of_introducao:
  3079                           	callstack 0
  3080                           
  3081 ;; *************** function _shift *****************
  3082 ;; Defined at:
  3083 ;;		line 42 in file "main.c"
  3084 ;; Parameters:    Size  Location     Type
  3085 ;;  t               2    8[COMRAM] int 
  3086 ;;  op              2   10[COMRAM] int 
  3087 ;; Auto vars:     Size  Location     Type
  3088 ;;		None
  3089 ;; Return value:  Size  Location     Type
  3090 ;;                  1    wreg      void 
  3091 ;; Registers used:
  3092 ;;		wreg, status,2, status,0, cstack
  3093 ;; Tracked objects:
  3094 ;;		On entry : 0/0
  3095 ;;		On exit  : 0/0
  3096 ;;		Unchanged: 0/0
  3097 ;; Data sizes:     COMRAM   BANK0   BANK1   BANK2   BANK3   BANK4   BANK5
  3098 ;;      Params:         4       0       0       0       0       0       0
  3099 ;;      Locals:         0       0       0       0       0       0       0
  3100 ;;      Temps:          0       0       0       0       0       0       0
  3101 ;;      Totals:         4       0       0       0       0       0       0
  3102 ;;Total ram usage:        4 bytes
  3103 ;; Hardware stack levels used: 1
  3104 ;; Hardware stack levels required when called: 3
  3105 ;; This function calls:
  3106 ;;		_delay
  3107 ;;		_lcdCommand
  3108 ;; This function is called by:
  3109 ;;		_introducao
  3110 ;;		_paradaEmergencial
  3111 ;; This function uses a non-reentrant model
  3112 ;;
  3113                           
  3114                           	psect	text18
  3115  001DEC                     __ptext18:
  3116                           	callstack 0
  3117  001DEC                     _shift:
  3118                           	callstack 26
  3119  001DEC                     
  3120                           ;main.c: 43:     for (i = 0; i < 5; i++) {
  3121  001DEC  0E00               	movlw	0
  3122  001DEE  6E78               	movwf	_i^0,c
  3123  001DF0                     l2454:
  3124  001DF0  0E04               	movlw	4
  3125  001DF2  6478               	cpfsgt	_i^0,c
  3126  001DF4  EFFE  F00E         	goto	u2321
  3127  001DF8  EF00  F00F         	goto	u2320
  3128  001DFC                     u2321:
  3129  001DFC  EF02  F00F         	goto	l2458
  3130  001E00                     u2320:
  3131  001E00  EF0A  F00F         	goto	l2464
  3132  001E04                     l2458:
  3133                           
  3134                           ;main.c: 44:         delay();
  3135  001E04  EC5E  F010         	call	_delay	;wreg free
  3136                           
  3137                           ;main.c: 45:         lcdCommand(0x1C);
  3138  001E08  0E1C               	movlw	28
  3139  001E0A  ECCC  F00D         	call	_lcdCommand
  3140  001E0E                     
  3141                           ;main.c: 46:     }
  3142  001E0E  2A78               	incf	_i^0,f,c
  3143  001E10  EFF8  F00E         	goto	l2454
  3144  001E14                     l2464:
  3145                           
  3146                           ;main.c: 47:     if (op == 1) return;
  3147  001E14  040B               	decf	shift@op^0,w,c
  3148  001E16  100C               	iorwf	(shift@op+1)^0,w,c
  3149  001E18  A4D8               	btfss	status,2,c
  3150  001E1A  EF11  F00F         	goto	u2331
  3151  001E1E  EF13  F00F         	goto	u2330
  3152  001E22                     u2331:
  3153  001E22  EF15  F00F         	goto	l2468
  3154  001E26                     u2330:
  3155  001E26  EF2B  F00F         	goto	l179
  3156  001E2A                     l2468:
  3157                           
  3158                           ;main.c: 48:     for (i = 0; i < 5; i++) {
  3159  001E2A  0E00               	movlw	0
  3160  001E2C  6E78               	movwf	_i^0,c
  3161  001E2E                     l2470:
  3162  001E2E  0E04               	movlw	4
  3163  001E30  6478               	cpfsgt	_i^0,c
  3164  001E32  EF1D  F00F         	goto	u2341
  3165  001E36  EF1F  F00F         	goto	u2340
  3166  001E3A                     u2341:
  3167  001E3A  EF21  F00F         	goto	l2474
  3168  001E3E                     u2340:
  3169  001E3E  EF29  F00F         	goto	l2480
  3170  001E42                     l2474:
  3171                           
  3172                           ;main.c: 49:         delay();
  3173  001E42  EC5E  F010         	call	_delay	;wreg free
  3174                           
  3175                           ;main.c: 50:         lcdCommand(0x18);
  3176  001E46  0E18               	movlw	24
  3177  001E48  ECCC  F00D         	call	_lcdCommand
  3178  001E4C                     
  3179                           ;main.c: 51:     }
  3180  001E4C  2A78               	incf	_i^0,f,c
  3181  001E4E  EF17  F00F         	goto	l2470
  3182  001E52                     l2480:
  3183                           
  3184                           ;main.c: 52:     delay();
  3185  001E52  EC5E  F010         	call	_delay	;wreg free
  3186  001E56                     l179:
  3187  001E56  0012               	return		;funcret
  3188  001E58                     __end_of_shift:
  3189                           	callstack 0
  3190                           
  3191 ;; *************** function _delay *****************
  3192 ;; Defined at:
  3193 ;;		line 33 in file "main.c"
  3194 ;; Parameters:    Size  Location     Type
  3195 ;;		None
  3196 ;; Auto vars:     Size  Location     Type
  3197 ;;  j               1    1[COMRAM] unsigned char 
  3198 ;;  i               1    0[COMRAM] unsigned char 
  3199 ;; Return value:  Size  Location     Type
  3200 ;;                  1    wreg      void 
  3201 ;; Registers used:
  3202 ;;		wreg, status,2, status,0
  3203 ;; Tracked objects:
  3204 ;;		On entry : 0/0
  3205 ;;		On exit  : 0/0
  3206 ;;		Unchanged: 0/0
  3207 ;; Data sizes:     COMRAM   BANK0   BANK1   BANK2   BANK3   BANK4   BANK5
  3208 ;;      Params:         0       0       0       0       0       0       0
  3209 ;;      Locals:         2       0       0       0       0       0       0
  3210 ;;      Temps:          0       0       0       0       0       0       0
  3211 ;;      Totals:         2       0       0       0       0       0       0
  3212 ;;Total ram usage:        2 bytes
  3213 ;; Hardware stack levels used: 1
  3214 ;; This function calls:
  3215 ;;		Nothing
  3216 ;; This function is called by:
  3217 ;;		_shift
  3218 ;;		_introducao
  3219 ;;		_terminandoViajem
  3220 ;;		_verso
  3221 ;;		_inverso
  3222 ;; This function uses a non-reentrant model
  3223 ;;
  3224                           
  3225                           	psect	text19
  3226  0020BC                     __ptext19:
  3227                           	callstack 0
  3228  0020BC                     _delay:
  3229                           	callstack 29
  3230  0020BC                     
  3231                           ;main.c: 34:     char i, j;;main.c: 35:     for (i = 0; i < 255; i++) {
  3232  0020BC  0E00               	movlw	0
  3233  0020BE  6E01               	movwf	delay@i^0,c
  3234  0020C0                     l2310:
  3235                           
  3236                           ;main.c: 36:         for (j = 0; j < 255; j++);
  3237  0020C0  0E00               	movlw	0
  3238  0020C2  6E02               	movwf	delay@j^0,c
  3239  0020C4                     l2316:
  3240  0020C4  2A02               	incf	delay@j^0,f,c
  3241  0020C6  2802               	incf	delay@j^0,w,c
  3242  0020C8  A4D8               	btfss	status,2,c
  3243  0020CA  EF69  F010         	goto	u2011
  3244  0020CE  EF6B  F010         	goto	u2010
  3245  0020D2                     u2011:
  3246  0020D2  EF62  F010         	goto	l2316
  3247  0020D6                     u2010:
  3248  0020D6                     
  3249                           ;main.c: 37:     }
  3250  0020D6  2A01               	incf	delay@i^0,f,c
  3251  0020D8  2801               	incf	delay@i^0,w,c
  3252  0020DA  A4D8               	btfss	status,2,c
  3253  0020DC  EF72  F010         	goto	u2021
  3254  0020E0  EF74  F010         	goto	u2020
  3255  0020E4                     u2021:
  3256  0020E4  EF60  F010         	goto	l2310
  3257  0020E8                     u2020:
  3258  0020E8  0012               	return		;funcret
  3259  0020EA                     __end_of_delay:
  3260                           	callstack 0
  3261                           
  3262 ;; *************** function _iniciandoViajem *****************
  3263 ;; Defined at:
  3264 ;;		line 102 in file "main.c"
  3265 ;; Parameters:    Size  Location     Type
  3266 ;;		None
  3267 ;; Auto vars:     Size  Location     Type
  3268 ;;  text           11    8[COMRAM] unsigned char [11]
  3269 ;; Return value:  Size  Location     Type
  3270 ;;                  1    wreg      void 
  3271 ;; Registers used:
  3272 ;;		wreg, fsr1l, fsr1h, fsr2l, fsr2h, status,2, status,0, cstack
  3273 ;; Tracked objects:
  3274 ;;		On entry : 0/0
  3275 ;;		On exit  : 0/0
  3276 ;;		Unchanged: 0/0
  3277 ;; Data sizes:     COMRAM   BANK0   BANK1   BANK2   BANK3   BANK4   BANK5
  3278 ;;      Params:         0       0       0       0       0       0       0
  3279 ;;      Locals:        11       0       0       0       0       0       0
  3280 ;;      Temps:          0       0       0       0       0       0       0
  3281 ;;      Totals:        11       0       0       0       0       0       0
  3282 ;;Total ram usage:       11 bytes
  3283 ;; Hardware stack levels used: 1
  3284 ;; Hardware stack levels required when called: 3
  3285 ;; This function calls:
  3286 ;;		_lcdCommand
  3287 ;;		_lcdData
  3288 ;; This function is called by:
  3289 ;;		_main
  3290 ;; This function uses a non-reentrant model
  3291 ;;
  3292                           
  3293                           	psect	text20
  3294  002010                     __ptext20:
  3295                           	callstack 0
  3296  002010                     _iniciandoViajem:
  3297                           	callstack 27
  3298  002010                     
  3299                           ;main.c: 103:     lcdCommand(0x01);
  3300  002010  0E01               	movlw	1
  3301  002012  ECCC  F00D         	call	_lcdCommand
  3302  002016                     
  3303                           ;main.c: 105:     char text[11] = "Viajando...";
  3304  002016  EE20  F0F2         	lfsr	2,iniciandoViajem@F2451
  3305  00201A  EE10  F009         	lfsr	1,iniciandoViajem@text
  3306  00201E  0E0A               	movlw	10
  3307  002020                     u3091:
  3308  002020  CFDB FFE3          	movff	plusw2,plusw1
  3309  002024  06E8               	decf	wreg,f,c
  3310  002026  E2FC               	bc	u3091
  3311  002028                     
  3312                           ;main.c: 106:     lcdCommand(0x80 | (0));
  3313  002028  0E80               	movlw	128
  3314  00202A  ECCC  F00D         	call	_lcdCommand
  3315  00202E                     
  3316                           ;main.c: 107:     for (i = 0; i < 10; i++) {
  3317  00202E  0E00               	movlw	0
  3318  002030  6E78               	movwf	_i^0,c
  3319  002032                     l3038:
  3320  002032  0E09               	movlw	9
  3321  002034  6478               	cpfsgt	_i^0,c
  3322  002036  EF1F  F010         	goto	u3101
  3323  00203A  EF21  F010         	goto	u3100
  3324  00203E                     u3101:
  3325  00203E  EF23  F010         	goto	l3042
  3326  002042                     u3100:
  3327  002042  EF2F  F010         	goto	l218
  3328  002046                     l3042:
  3329                           
  3330                           ;main.c: 108:         lcdData(text[i]);
  3331  002046  0E09               	movlw	low iniciandoViajem@text
  3332  002048  2478               	addwf	_i^0,w,c
  3333  00204A  6ED9               	movwf	fsr2l,c
  3334  00204C  6ADA               	clrf	fsr2h,c
  3335  00204E  0E00               	movlw	high iniciandoViajem@text
  3336  002050  22DA               	addwfc	fsr2h,f,c
  3337  002052  50DF               	movf	indf2,w,c
  3338  002054  ECDE  F00F         	call	_lcdData
  3339  002058                     
  3340                           ;main.c: 109:     }
  3341  002058  2A78               	incf	_i^0,f,c
  3342  00205A  EF19  F010         	goto	l3038
  3343  00205E                     l218:
  3344  00205E  0012               	return		;funcret
  3345  002060                     __end_of_iniciandoViajem:
  3346                           	callstack 0
  3347                           
  3348 ;; *************** function _lcdData *****************
  3349 ;; Defined at:
  3350 ;;		line 81 in file "lcd.c"
  3351 ;; Parameters:    Size  Location     Type
  3352 ;;  valor           1    wreg     unsigned char 
  3353 ;; Auto vars:     Size  Location     Type
  3354 ;;  valor           1    6[COMRAM] unsigned char 
  3355 ;;  old_D           1    7[COMRAM] unsigned char 
  3356 ;; Return value:  Size  Location     Type
  3357 ;;                  1    wreg      void 
  3358 ;; Registers used:
  3359 ;;		wreg, status,2, status,0, cstack
  3360 ;; Tracked objects:
  3361 ;;		On entry : 0/0
  3362 ;;		On exit  : 0/0
  3363 ;;		Unchanged: 0/0
  3364 ;; Data sizes:     COMRAM   BANK0   BANK1   BANK2   BANK3   BANK4   BANK5
  3365 ;;      Params:         0       0       0       0       0       0       0
  3366 ;;      Locals:         2       0       0       0       0       0       0
  3367 ;;      Temps:          0       0       0       0       0       0       0
  3368 ;;      Totals:         2       0       0       0       0       0       0
  3369 ;;Total ram usage:        2 bytes
  3370 ;; Hardware stack levels used: 1
  3371 ;; Hardware stack levels required when called: 1
  3372 ;; This function calls:
  3373 ;;		_Delay40us
  3374 ;;		_digitalWrite
  3375 ;; This function is called by:
  3376 ;;		_introducao
  3377 ;;		_opcoes
  3378 ;;		_iniciandoViajem
  3379 ;;		_terminandoViajem
  3380 ;;		_paradaEmergencial
  3381 ;;		_main
  3382 ;; This function uses a non-reentrant model
  3383 ;;
  3384                           
  3385                           	psect	text21
  3386  001FBC                     __ptext21:
  3387                           	callstack 0
  3388  001FBC                     _lcdData:
  3389                           	callstack 28
  3390                           
  3391                           ;incstack = 0
  3392                           ;lcdData@valor stored from wreg
  3393  001FBC  6E07               	movwf	lcdData@valor^0,c
  3394  001FBE                     
  3395                           ;lcd.c: 83:     unsigned char old_D;;lcd.c: 84:     old_D = PORTD;
  3396  001FBE  CF83 F008          	movff	3971,lcdData@old_D	;volatile
  3397  001FC2                     
  3398                           ;lcd.c: 86:     TRISD = 0x00;
  3399  001FC2  0E00               	movlw	0
  3400  001FC4  6E95               	movwf	149,c	;volatile
  3401  001FC6                     
  3402                           ;lcd.c: 87:  digitalWrite(PIN_E2, 1);
  3403  001FC6  0E00               	movlw	0
  3404  001FC8  6E02               	movwf	(digitalWrite@pin+1)^0,c
  3405  001FCA  0E22               	movlw	34
  3406  001FCC  6E01               	movwf	digitalWrite@pin^0,c
  3407  001FCE  0E00               	movlw	0
  3408  001FD0  6E04               	movwf	(digitalWrite@value+1)^0,c
  3409  001FD2  0E01               	movlw	1
  3410  001FD4  6E03               	movwf	digitalWrite@value^0,c
  3411  001FD6  EC90  F006         	call	_digitalWrite	;wreg free
  3412  001FDA                     
  3413                           ;lcd.c: 89:  PORTD = valor;
  3414  001FDA  C007  FF83         	movff	lcdData@valor,3971	;volatile
  3415  001FDE                     
  3416                           ;lcd.c: 91:     digitalWrite(PIN_E1, 1);
  3417  001FDE  0E00               	movlw	0
  3418  001FE0  6E02               	movwf	(digitalWrite@pin+1)^0,c
  3419  001FE2  0E21               	movlw	33
  3420  001FE4  6E01               	movwf	digitalWrite@pin^0,c
  3421  001FE6  0E00               	movlw	0
  3422  001FE8  6E04               	movwf	(digitalWrite@value+1)^0,c
  3423  001FEA  0E01               	movlw	1
  3424  001FEC  6E03               	movwf	digitalWrite@value^0,c
  3425  001FEE  EC90  F006         	call	_digitalWrite	;wreg free
  3426  001FF2                     
  3427                           ;lcd.c: 92:  digitalWrite(PIN_E1, 0);
  3428  001FF2  0E00               	movlw	0
  3429  001FF4  6E02               	movwf	(digitalWrite@pin+1)^0,c
  3430  001FF6  0E21               	movlw	33
  3431  001FF8  6E01               	movwf	digitalWrite@pin^0,c
  3432  001FFA  0E00               	movlw	0
  3433  001FFC  6E04               	movwf	(digitalWrite@value+1)^0,c
  3434  001FFE  0E00               	movlw	0
  3435  002000  6E03               	movwf	digitalWrite@value^0,c
  3436  002002  EC90  F006         	call	_digitalWrite	;wreg free
  3437  002006                     
  3438                           ;lcd.c: 94:     PORTD= old_D;
  3439  002006  C008  FF83         	movff	lcdData@old_D,3971	;volatile
  3440  00200A                     
  3441                           ;lcd.c: 96:  Delay40us();
  3442  00200A  ECB6  F010         	call	_Delay40us	;wreg free
  3443  00200E  0012               	return		;funcret
  3444  002010                     __end_of_lcdData:
  3445                           	callstack 0
  3446                           
  3447 ;; *************** function _lcdCommand *****************
  3448 ;; Defined at:
  3449 ;;		line 56 in file "lcd.c"
  3450 ;; Parameters:    Size  Location     Type
  3451 ;;  cmd             1    wreg     unsigned char 
  3452 ;; Auto vars:     Size  Location     Type
  3453 ;;  cmd             1    7[COMRAM] unsigned char 
  3454 ;;  old_D           1    6[COMRAM] unsigned char 
  3455 ;; Return value:  Size  Location     Type
  3456 ;;                  1    wreg      void 
  3457 ;; Registers used:
  3458 ;;		wreg, status,2, status,0, cstack
  3459 ;; Tracked objects:
  3460 ;;		On entry : 0/0
  3461 ;;		On exit  : 0/0
  3462 ;;		Unchanged: 0/0
  3463 ;; Data sizes:     COMRAM   BANK0   BANK1   BANK2   BANK3   BANK4   BANK5
  3464 ;;      Params:         0       0       0       0       0       0       0
  3465 ;;      Locals:         2       0       0       0       0       0       0
  3466 ;;      Temps:          0       0       0       0       0       0       0
  3467 ;;      Totals:         2       0       0       0       0       0       0
  3468 ;;Total ram usage:        2 bytes
  3469 ;; Hardware stack levels used: 1
  3470 ;; Hardware stack levels required when called: 2
  3471 ;; This function calls:
  3472 ;;		_Delay2ms
  3473 ;;		_Delay40us
  3474 ;;		_digitalWrite
  3475 ;; This function is called by:
  3476 ;;		_lcdInit
  3477 ;;		_shift
  3478 ;;		_introducao
  3479 ;;		_opcoes
  3480 ;;		_iniciandoViajem
  3481 ;;		_terminandoViajem
  3482 ;;		_paradaEmergencial
  3483 ;;		_main
  3484 ;; This function uses a non-reentrant model
  3485 ;;
  3486                           
  3487                           	psect	text22
  3488  001B98                     __ptext22:
  3489                           	callstack 0
  3490  001B98                     _lcdCommand:
  3491                           	callstack 27
  3492                           
  3493                           ;incstack = 0
  3494                           ;lcdCommand@cmd stored from wreg
  3495  001B98  6E08               	movwf	lcdCommand@cmd^0,c
  3496  001B9A                     
  3497                           ;lcd.c: 57:     unsigned char old_D;;lcd.c: 58:     old_D = PORTD;
  3498  001B9A  CF83 F007          	movff	3971,lcdCommand@old_D	;volatile
  3499  001B9E                     
  3500                           ;lcd.c: 61:     TRISD = 0x00;
  3501  001B9E  0E00               	movlw	0
  3502  001BA0  6E95               	movwf	149,c	;volatile
  3503  001BA2                     
  3504                           ;lcd.c: 63:  digitalWrite(PIN_E2, 0);
  3505  001BA2  0E00               	movlw	0
  3506  001BA4  6E02               	movwf	(digitalWrite@pin+1)^0,c
  3507  001BA6  0E22               	movlw	34
  3508  001BA8  6E01               	movwf	digitalWrite@pin^0,c
  3509  001BAA  0E00               	movlw	0
  3510  001BAC  6E04               	movwf	(digitalWrite@value+1)^0,c
  3511  001BAE  0E00               	movlw	0
  3512  001BB0  6E03               	movwf	digitalWrite@value^0,c
  3513  001BB2  EC90  F006         	call	_digitalWrite	;wreg free
  3514  001BB6                     
  3515                           ;lcd.c: 64:  PORTD = cmd;
  3516  001BB6  C008  FF83         	movff	lcdCommand@cmd,3971	;volatile
  3517  001BBA                     
  3518                           ;lcd.c: 66:     digitalWrite(PIN_E1, 1);
  3519  001BBA  0E00               	movlw	0
  3520  001BBC  6E02               	movwf	(digitalWrite@pin+1)^0,c
  3521  001BBE  0E21               	movlw	33
  3522  001BC0  6E01               	movwf	digitalWrite@pin^0,c
  3523  001BC2  0E00               	movlw	0
  3524  001BC4  6E04               	movwf	(digitalWrite@value+1)^0,c
  3525  001BC6  0E01               	movlw	1
  3526  001BC8  6E03               	movwf	digitalWrite@value^0,c
  3527  001BCA  EC90  F006         	call	_digitalWrite	;wreg free
  3528  001BCE                     
  3529                           ;lcd.c: 67:  digitalWrite(PIN_E1, 0);
  3530  001BCE  0E00               	movlw	0
  3531  001BD0  6E02               	movwf	(digitalWrite@pin+1)^0,c
  3532  001BD2  0E21               	movlw	33
  3533  001BD4  6E01               	movwf	digitalWrite@pin^0,c
  3534  001BD6  0E00               	movlw	0
  3535  001BD8  6E04               	movwf	(digitalWrite@value+1)^0,c
  3536  001BDA  0E00               	movlw	0
  3537  001BDC  6E03               	movwf	digitalWrite@value^0,c
  3538  001BDE  EC90  F006         	call	_digitalWrite	;wreg free
  3539  001BE2                     
  3540                           ;lcd.c: 70:     PORTD= old_D;
  3541  001BE2  C007  FF83         	movff	lcdCommand@old_D,3971	;volatile
  3542  001BE6                     
  3543                           ;lcd.c: 72:     if((cmd == 0x02)||(cmd == 0x01)){
  3544  001BE6  0E02               	movlw	2
  3545  001BE8  1808               	xorwf	lcdCommand@cmd^0,w,c
  3546  001BEA  B4D8               	btfsc	status,2,c
  3547  001BEC  EFFA  F00D         	goto	u1991
  3548  001BF0  EFFC  F00D         	goto	u1990
  3549  001BF4                     u1991:
  3550  001BF4  EF04  F00E         	goto	l2300
  3551  001BF8                     u1990:
  3552  001BF8  0408               	decf	lcdCommand@cmd^0,w,c
  3553  001BFA  A4D8               	btfss	status,2,c
  3554  001BFC  EF02  F00E         	goto	u2001
  3555  001C00  EF04  F00E         	goto	u2000
  3556  001C04                     u2001:
  3557  001C04  EF08  F00E         	goto	l2302
  3558  001C08                     u2000:
  3559  001C08                     l2300:
  3560                           
  3561                           ;lcd.c: 73:        Delay2ms();
  3562  001C08  EC9B  F010         	call	_Delay2ms	;wreg free
  3563                           
  3564                           ;lcd.c: 74:     }else{
  3565  001C0C  EF0A  F00E         	goto	l121
  3566  001C10                     l2302:
  3567                           
  3568                           ;lcd.c: 75:     Delay40us();
  3569  001C10  ECB6  F010         	call	_Delay40us	;wreg free
  3570  001C14                     l121:
  3571  001C14  0012               	return		;funcret
  3572  001C16                     __end_of_lcdCommand:
  3573                           	callstack 0
  3574                           
  3575 ;; *************** function _Delay2ms *****************
  3576 ;; Defined at:
  3577 ;;		line 48 in file "lcd.c"
  3578 ;; Parameters:    Size  Location     Type
  3579 ;;		None
  3580 ;; Auto vars:     Size  Location     Type
  3581 ;;  i               1    1[COMRAM] unsigned char 
  3582 ;; Return value:  Size  Location     Type
  3583 ;;                  1    wreg      void 
  3584 ;; Registers used:
  3585 ;;		wreg, status,2, status,0, cstack
  3586 ;; Tracked objects:
  3587 ;;		On entry : 0/0
  3588 ;;		On exit  : 0/0
  3589 ;;		Unchanged: 0/0
  3590 ;; Data sizes:     COMRAM   BANK0   BANK1   BANK2   BANK3   BANK4   BANK5
  3591 ;;      Params:         0       0       0       0       0       0       0
  3592 ;;      Locals:         1       0       0       0       0       0       0
  3593 ;;      Temps:          0       0       0       0       0       0       0
  3594 ;;      Totals:         1       0       0       0       0       0       0
  3595 ;;Total ram usage:        1 bytes
  3596 ;; Hardware stack levels used: 1
  3597 ;; Hardware stack levels required when called: 1
  3598 ;; This function calls:
  3599 ;;		_Delay40us
  3600 ;; This function is called by:
  3601 ;;		_lcdCommand
  3602 ;;		_lcdInit
  3603 ;; This function uses a non-reentrant model
  3604 ;;
  3605                           
  3606                           	psect	text23
  3607  002136                     __ptext23:
  3608                           	callstack 0
  3609  002136                     _Delay2ms:
  3610                           	callstack 27
  3611  002136                     
  3612                           ;lcd.c: 49:  unsigned char i;;lcd.c: 50:  for(i=0; i < 50; i++)
  3613  002136  0E00               	movlw	0
  3614  002138  6E02               	movwf	Delay2ms@i^0,c
  3615  00213A                     l2276:
  3616                           
  3617                           ;lcd.c: 51:  {;lcd.c: 52:   Delay40us();
  3618  00213A  ECB6  F010         	call	_Delay40us	;wreg free
  3619  00213E                     
  3620                           ;lcd.c: 53:  }
  3621  00213E  2A02               	incf	Delay2ms@i^0,f,c
  3622  002140  0E31               	movlw	49
  3623  002142  6402               	cpfsgt	Delay2ms@i^0,c
  3624  002144  EFA6  F010         	goto	u1981
  3625  002148  EFA8  F010         	goto	u1980
  3626  00214C                     u1981:
  3627  00214C  EF9D  F010         	goto	l2276
  3628  002150                     u1980:
  3629  002150  0012               	return		;funcret
  3630  002152                     __end_of_Delay2ms:
  3631                           	callstack 0
  3632                           
  3633 ;; *************** function _Delay40us *****************
  3634 ;; Defined at:
  3635 ;;		line 43 in file "lcd.c"
  3636 ;; Parameters:    Size  Location     Type
  3637 ;;		None
  3638 ;; Auto vars:     Size  Location     Type
  3639 ;;  i               1    0[COMRAM] unsigned char 
  3640 ;; Return value:  Size  Location     Type
  3641 ;;                  1    wreg      void 
  3642 ;; Registers used:
  3643 ;;		wreg, status,2, status,0
  3644 ;; Tracked objects:
  3645 ;;		On entry : 0/0
  3646 ;;		On exit  : 0/0
  3647 ;;		Unchanged: 0/0
  3648 ;; Data sizes:     COMRAM   BANK0   BANK1   BANK2   BANK3   BANK4   BANK5
  3649 ;;      Params:         0       0       0       0       0       0       0
  3650 ;;      Locals:         1       0       0       0       0       0       0
  3651 ;;      Temps:          0       0       0       0       0       0       0
  3652 ;;      Totals:         1       0       0       0       0       0       0
  3653 ;;Total ram usage:        1 bytes
  3654 ;; Hardware stack levels used: 1
  3655 ;; This function calls:
  3656 ;;		Nothing
  3657 ;; This function is called by:
  3658 ;;		_Delay2ms
  3659 ;;		_lcdCommand
  3660 ;;		_lcdData
  3661 ;; This function uses a non-reentrant model
  3662 ;;
  3663                           
  3664                           	psect	text24
  3665  00216C                     __ptext24:
  3666                           	callstack 0
  3667  00216C                     _Delay40us:
  3668                           	callstack 28
  3669  00216C                     
  3670                           ;lcd.c: 44:  unsigned char i;;lcd.c: 45:  for(i=0; i < 25; i++);
  3671  00216C  0E00               	movlw	0
  3672  00216E  6E01               	movwf	Delay40us@i^0,c
  3673  002170                     l2226:
  3674  002170  2A01               	incf	Delay40us@i^0,f,c
  3675  002172  0E18               	movlw	24
  3676  002174  6401               	cpfsgt	Delay40us@i^0,c
  3677  002176  EFBF  F010         	goto	u1771
  3678  00217A  EFC1  F010         	goto	u1770
  3679  00217E                     u1771:
  3680  00217E  EFB8  F010         	goto	l2226
  3681  002182                     u1770:
  3682  002182  0012               	return		;funcret
  3683  002184                     __end_of_Delay40us:
  3684                           	callstack 0
  3685                           
  3686 ;; *************** function _cronometro *****************
  3687 ;; Defined at:
  3688 ;;		line 130 in file "main.c"
  3689 ;; Parameters:    Size  Location     Type
  3690 ;;  temp            2   16[COMRAM] int 
  3691 ;; Auto vars:     Size  Location     Type
  3692 ;;  tempo           4   21[COMRAM] float 
  3693 ;;  cont            2   25[COMRAM] int 
  3694 ;;  aux             2   19[COMRAM] int 
  3695 ;; Return value:  Size  Location     Type
  3696 ;;                  1    wreg      void 
  3697 ;; Registers used:
  3698 ;;		wreg, status,2, status,0, tblptrl, tblptrh, tblptru, prodl, prodh, cstack
  3699 ;; Tracked objects:
  3700 ;;		On entry : 0/0
  3701 ;;		On exit  : 0/0
  3702 ;;		Unchanged: 0/0
  3703 ;; Data sizes:     COMRAM   BANK0   BANK1   BANK2   BANK3   BANK4   BANK5
  3704 ;;      Params:         2       0       0       0       0       0       0
  3705 ;;      Locals:         8       0       0       0       0       0       0
  3706 ;;      Temps:          1       0       0       0       0       0       0
  3707 ;;      Totals:        11       0       0       0       0       0       0
  3708 ;;Total ram usage:       11 bytes
  3709 ;; Hardware stack levels used: 1
  3710 ;; Hardware stack levels required when called: 2
  3711 ;; This function calls:
  3712 ;;		___awdiv
  3713 ;;		___awmod
  3714 ;;		___fladd
  3715 ;;		___flge
  3716 ;;		___wmul
  3717 ;;		_digitalWrite
  3718 ;;		_ssdDigit
  3719 ;;		_ssdUpdate
  3720 ;; This function is called by:
  3721 ;;		_main
  3722 ;; This function uses a non-reentrant model
  3723 ;;
  3724                           
  3725                           	psect	text25
  3726  000F6E                     __ptext25:
  3727                           	callstack 0
  3728  000F6E                     _cronometro:
  3729                           	callstack 28
  3730  000F6E                     
  3731                           ;main.c: 131:     for (int aux = 0; aux <= temp * 100 + 1; aux++) {
  3732  000F6E  0E00               	movlw	0
  3733  000F70  6E15               	movwf	(cronometro@aux+1)^0,c
  3734  000F72  0E00               	movlw	0
  3735  000F74  6E14               	movwf	cronometro@aux^0,c
  3736  000F76  EF5D  F008         	goto	l3090
  3737  000F7A                     l3070:
  3738                           
  3739                           ;main.c: 132:         int cont = aux / 100;
  3740  000F7A  C014  F001         	movff	cronometro@aux,___awdiv@dividend
  3741  000F7E  C015  F002         	movff	cronometro@aux+1,___awdiv@dividend+1
  3742  000F82  0E00               	movlw	0
  3743  000F84  6E04               	movwf	(___awdiv@divisor+1)^0,c
  3744  000F86  0E64               	movlw	100
  3745  000F88  6E03               	movwf	___awdiv@divisor^0,c
  3746  000F8A  EC6B  F00C         	call	___awdiv	;wreg free
  3747  000F8E  C001  F01A         	movff	?___awdiv,cronometro@cont
  3748  000F92  C002  F01B         	movff	?___awdiv+1,cronometro@cont+1
  3749  000F96                     
  3750                           ;main.c: 133:         if (cont >= 10) {
  3751  000F96  BE1B               	btfsc	(cronometro@cont+1)^0,7,c
  3752  000F98  EFD7  F007         	goto	u3131
  3753  000F9C  501B               	movf	(cronometro@cont+1)^0,w,c
  3754  000F9E  E109               	bnz	u3130
  3755  000FA0  0E0A               	movlw	10
  3756  000FA2  5C1A               	subwf	cronometro@cont^0,w,c
  3757  000FA4  A0D8               	btfss	status,0,c
  3758  000FA6  EFD7  F007         	goto	u3131
  3759  000FAA  EFD9  F007         	goto	u3130
  3760  000FAE                     u3131:
  3761  000FAE  EFF9  F007         	goto	l3076
  3762  000FB2                     u3130:
  3763  000FB2                     
  3764                           ;main.c: 134:             ssdDigit(cont / 10, 2);
  3765  000FB2  0E02               	movlw	2
  3766  000FB4  6E09               	movwf	ssdDigit@pos^0,c
  3767  000FB6  C01A  F001         	movff	cronometro@cont,___awdiv@dividend
  3768  000FBA  C01B  F002         	movff	cronometro@cont+1,___awdiv@dividend+1
  3769  000FBE  0E00               	movlw	0
  3770  000FC0  6E04               	movwf	(___awdiv@divisor+1)^0,c
  3771  000FC2  0E0A               	movlw	10
  3772  000FC4  6E03               	movwf	___awdiv@divisor^0,c
  3773  000FC6  EC6B  F00C         	call	___awdiv	;wreg free
  3774  000FCA  5001               	movf	?___awdiv^0,w,c
  3775  000FCC  EC5C  F00F         	call	_ssdDigit
  3776                           
  3777                           ;main.c: 135:             ssdDigit(cont % 10, 3);
  3778  000FD0  0E03               	movlw	3
  3779  000FD2  6E09               	movwf	ssdDigit@pos^0,c
  3780  000FD4  C01A  F001         	movff	cronometro@cont,___awmod@dividend
  3781  000FD8  C01B  F002         	movff	cronometro@cont+1,___awmod@dividend+1
  3782  000FDC  0E00               	movlw	0
  3783  000FDE  6E04               	movwf	(___awmod@divisor+1)^0,c
  3784  000FE0  0E0A               	movlw	10
  3785  000FE2  6E03               	movwf	___awmod@divisor^0,c
  3786  000FE4  EC25  F00D         	call	___awmod	;wreg free
  3787  000FE8  5001               	movf	?___awmod^0,w,c
  3788  000FEA  EC5C  F00F         	call	_ssdDigit
  3789                           
  3790                           ;main.c: 136:         } else {
  3791  000FEE  EF03  F008         	goto	l3078
  3792  000FF2                     l3076:
  3793                           
  3794                           ;main.c: 137:             ssdDigit(0, 2);
  3795  000FF2  0E02               	movlw	2
  3796  000FF4  6E09               	movwf	ssdDigit@pos^0,c
  3797  000FF6  0E00               	movlw	0
  3798  000FF8  EC5C  F00F         	call	_ssdDigit
  3799                           
  3800                           ;main.c: 138:             ssdDigit(cont, 3);
  3801  000FFC  0E03               	movlw	3
  3802  000FFE  6E09               	movwf	ssdDigit@pos^0,c
  3803  001000  501A               	movf	cronometro@cont^0,w,c
  3804  001002  EC5C  F00F         	call	_ssdDigit
  3805  001006                     l3078:
  3806                           
  3807                           ;main.c: 140:         ssdUpdate();
  3808  001006  EC27  F00A         	call	_ssdUpdate	;wreg free
  3809  00100A                     
  3810                           ;main.c: 141:         for (float tempo = 0; tempo < 100; tempo++);
  3811  00100A  0E00               	movlw	0
  3812  00100C  6E16               	movwf	cronometro@tempo^0,c
  3813  00100E  0E00               	movlw	0
  3814  001010  6E17               	movwf	(cronometro@tempo+1)^0,c
  3815  001012  0E00               	movlw	0
  3816  001014  6E18               	movwf	(cronometro@tempo+2)^0,c
  3817  001016  0E00               	movlw	0
  3818  001018  6E19               	movwf	(cronometro@tempo+3)^0,c
  3819  00101A  C016  F001         	movff	cronometro@tempo,___flge@ff1
  3820  00101E  C017  F002         	movff	cronometro@tempo+1,___flge@ff1+1
  3821  001022  C018  F003         	movff	cronometro@tempo+2,___flge@ff1+2
  3822  001026  C019  F004         	movff	cronometro@tempo+3,___flge@ff1+3
  3823  00102A  0E00               	movlw	0
  3824  00102C  6E05               	movwf	___flge@ff2^0,c
  3825  00102E  0E00               	movlw	0
  3826  001030  6E06               	movwf	(___flge@ff2+1)^0,c
  3827  001032  0EC8               	movlw	200
  3828  001034  6E07               	movwf	(___flge@ff2+2)^0,c
  3829  001036  0E42               	movlw	66
  3830  001038  6E08               	movwf	(___flge@ff2+3)^0,c
  3831  00103A  ECE9  F00B         	call	___flge	;wreg free
  3832  00103E  A0D8               	btfss	status,0,c
  3833  001040  EF24  F008         	goto	u3141
  3834  001044  EF26  F008         	goto	u3140
  3835  001048                     u3141:
  3836  001048  EF28  F008         	goto	l3086
  3837  00104C                     u3140:
  3838  00104C  EF5B  F008         	goto	l3088
  3839  001050                     l3086:
  3840  001050  C016  F001         	movff	cronometro@tempo,___fladd@b
  3841  001054  C017  F002         	movff	cronometro@tempo+1,___fladd@b+1
  3842  001058  C018  F003         	movff	cronometro@tempo+2,___fladd@b+2
  3843  00105C  C019  F004         	movff	cronometro@tempo+3,___fladd@b+3
  3844  001060  0E00               	movlw	0
  3845  001062  6E05               	movwf	___fladd@a^0,c
  3846  001064  0E00               	movlw	0
  3847  001066  6E06               	movwf	(___fladd@a+1)^0,c
  3848  001068  0E80               	movlw	128
  3849  00106A  6E07               	movwf	(___fladd@a+2)^0,c
  3850  00106C  0E3F               	movlw	63
  3851  00106E  6E08               	movwf	(___fladd@a+3)^0,c
  3852  001070  EC09  F003         	call	___fladd	;wreg free
  3853  001074  C001  F016         	movff	?___fladd,cronometro@tempo
  3854  001078  C002  F017         	movff	?___fladd+1,cronometro@tempo+1
  3855  00107C  C003  F018         	movff	?___fladd+2,cronometro@tempo+2
  3856  001080  C004  F019         	movff	?___fladd+3,cronometro@tempo+3
  3857  001084  C016  F001         	movff	cronometro@tempo,___flge@ff1
  3858  001088  C017  F002         	movff	cronometro@tempo+1,___flge@ff1+1
  3859  00108C  C018  F003         	movff	cronometro@tempo+2,___flge@ff1+2
  3860  001090  C019  F004         	movff	cronometro@tempo+3,___flge@ff1+3
  3861  001094  0E00               	movlw	0
  3862  001096  6E05               	movwf	___flge@ff2^0,c
  3863  001098  0E00               	movlw	0
  3864  00109A  6E06               	movwf	(___flge@ff2+1)^0,c
  3865  00109C  0EC8               	movlw	200
  3866  00109E  6E07               	movwf	(___flge@ff2+2)^0,c
  3867  0010A0  0E42               	movlw	66
  3868  0010A2  6E08               	movwf	(___flge@ff2+3)^0,c
  3869  0010A4  ECE9  F00B         	call	___flge	;wreg free
  3870  0010A8  A0D8               	btfss	status,0,c
  3871  0010AA  EF59  F008         	goto	u3151
  3872  0010AE  EF5B  F008         	goto	u3150
  3873  0010B2                     u3151:
  3874  0010B2  EF28  F008         	goto	l3086
  3875  0010B6                     u3150:
  3876  0010B6                     l3088:
  3877                           
  3878                           ;main.c: 142:     }
  3879  0010B6  4A14               	infsnz	cronometro@aux^0,f,c
  3880  0010B8  2A15               	incf	(cronometro@aux+1)^0,f,c
  3881  0010BA                     l3090:
  3882  0010BA  C011  F001         	movff	cronometro@temp,___wmul@multiplier
  3883  0010BE  C012  F002         	movff	cronometro@temp+1,___wmul@multiplier+1
  3884  0010C2  0E00               	movlw	0
  3885  0010C4  6E04               	movwf	(___wmul@multiplicand+1)^0,c
  3886  0010C6  0E64               	movlw	100
  3887  0010C8  6E03               	movwf	___wmul@multiplicand^0,c
  3888  0010CA  EC88  F010         	call	___wmul	;wreg free
  3889  0010CE  0E01               	movlw	1
  3890  0010D0  2601               	addwf	?___wmul^0,f,c
  3891  0010D2  0E00               	movlw	0
  3892  0010D4  2202               	addwfc	(?___wmul+1)^0,f,c
  3893  0010D6  5014               	movf	cronometro@aux^0,w,c
  3894  0010D8  5C01               	subwf	?___wmul^0,w,c
  3895  0010DA  5002               	movf	(?___wmul+1)^0,w,c
  3896  0010DC  0A80               	xorlw	128
  3897  0010DE  6E13               	movwf	??_cronometro^0,c
  3898  0010E0  5015               	movf	(cronometro@aux+1)^0,w,c
  3899  0010E2  0A80               	xorlw	128
  3900  0010E4  5813               	subwfb	??_cronometro^0,w,c
  3901  0010E6  B0D8               	btfsc	status,0,c
  3902  0010E8  EF78  F008         	goto	u3161
  3903  0010EC  EF7A  F008         	goto	u3160
  3904  0010F0                     u3161:
  3905  0010F0  EFBD  F007         	goto	l3070
  3906  0010F4                     u3160:
  3907  0010F4                     
  3908                           ;main.c: 144:     digitalWrite(PIN_A2, 0);
  3909  0010F4  0E00               	movlw	0
  3910  0010F6  6E02               	movwf	(digitalWrite@pin+1)^0,c
  3911  0010F8  0E02               	movlw	2
  3912  0010FA  6E01               	movwf	digitalWrite@pin^0,c
  3913  0010FC  0E00               	movlw	0
  3914  0010FE  6E04               	movwf	(digitalWrite@value+1)^0,c
  3915  001100  0E00               	movlw	0
  3916  001102  6E03               	movwf	digitalWrite@value^0,c
  3917  001104  EC90  F006         	call	_digitalWrite	;wreg free
  3918                           
  3919                           ;main.c: 145:     digitalWrite(PIN_A3, 0);
  3920  001108  0E00               	movlw	0
  3921  00110A  6E02               	movwf	(digitalWrite@pin+1)^0,c
  3922  00110C  0E03               	movlw	3
  3923  00110E  6E01               	movwf	digitalWrite@pin^0,c
  3924  001110  0E00               	movlw	0
  3925  001112  6E04               	movwf	(digitalWrite@value+1)^0,c
  3926  001114  0E00               	movlw	0
  3927  001116  6E03               	movwf	digitalWrite@value^0,c
  3928  001118  EC90  F006         	call	_digitalWrite	;wreg free
  3929                           
  3930                           ;main.c: 146:     digitalWrite(PIN_A4, 0);
  3931  00111C  0E00               	movlw	0
  3932  00111E  6E02               	movwf	(digitalWrite@pin+1)^0,c
  3933  001120  0E04               	movlw	4
  3934  001122  6E01               	movwf	digitalWrite@pin^0,c
  3935  001124  0E00               	movlw	0
  3936  001126  6E04               	movwf	(digitalWrite@value+1)^0,c
  3937  001128  0E00               	movlw	0
  3938  00112A  6E03               	movwf	digitalWrite@value^0,c
  3939  00112C  EC90  F006         	call	_digitalWrite	;wreg free
  3940                           
  3941                           ;main.c: 147:     digitalWrite(PIN_A5, 0);
  3942  001130  0E00               	movlw	0
  3943  001132  6E02               	movwf	(digitalWrite@pin+1)^0,c
  3944  001134  0E05               	movlw	5
  3945  001136  6E01               	movwf	digitalWrite@pin^0,c
  3946  001138  0E00               	movlw	0
  3947  00113A  6E04               	movwf	(digitalWrite@value+1)^0,c
  3948  00113C  0E00               	movlw	0
  3949  00113E  6E03               	movwf	digitalWrite@value^0,c
  3950  001140  EC90  F006         	call	_digitalWrite	;wreg free
  3951  001144  0012               	return		;funcret
  3952  001146                     __end_of_cronometro:
  3953                           	callstack 0
  3954                           
  3955 ;; *************** function _ssdUpdate *****************
  3956 ;; Defined at:
  3957 ;;		line 54 in file "ssd.c"
  3958 ;; Parameters:    Size  Location     Type
  3959 ;;		None
  3960 ;; Auto vars:     Size  Location     Type
  3961 ;;		None
  3962 ;; Return value:  Size  Location     Type
  3963 ;;                  1    wreg      void 
  3964 ;; Registers used:
  3965 ;;		wreg, status,2, status,0, tblptrl, tblptrh, tblptru, cstack
  3966 ;; Tracked objects:
  3967 ;;		On entry : 0/0
  3968 ;;		On exit  : 0/0
  3969 ;;		Unchanged: 0/0
  3970 ;; Data sizes:     COMRAM   BANK0   BANK1   BANK2   BANK3   BANK4   BANK5
  3971 ;;      Params:         0       0       0       0       0       0       0
  3972 ;;      Locals:         0       0       0       0       0       0       0
  3973 ;;      Temps:          2       0       0       0       0       0       0
  3974 ;;      Totals:         2       0       0       0       0       0       0
  3975 ;;Total ram usage:        2 bytes
  3976 ;; Hardware stack levels used: 1
  3977 ;; Hardware stack levels required when called: 1
  3978 ;; This function calls:
  3979 ;;		_digitalWrite
  3980 ;; This function is called by:
  3981 ;;		_cronometro
  3982 ;; This function uses a non-reentrant model
  3983 ;;
  3984                           
  3985                           	psect	text26
  3986  00144E                     __ptext26:
  3987                           	callstack 0
  3988  00144E                     _ssdUpdate:
  3989                           	callstack 28
  3990  00144E                     
  3991                           ;ssd.c: 58:     TRISD= 0x00;
  3992  00144E  0E00               	movlw	0
  3993  001450  6E95               	movwf	149,c	;volatile
  3994  001452                     
  3995                           ;ssd.c: 60:     digitalWrite(PIN_A2,0);
  3996  001452  0E00               	movlw	0
  3997  001454  6E02               	movwf	(digitalWrite@pin+1)^0,c
  3998  001456  0E02               	movlw	2
  3999  001458  6E01               	movwf	digitalWrite@pin^0,c
  4000  00145A  0E00               	movlw	0
  4001  00145C  6E04               	movwf	(digitalWrite@value+1)^0,c
  4002  00145E  0E00               	movlw	0
  4003  001460  6E03               	movwf	digitalWrite@value^0,c
  4004  001462  EC90  F006         	call	_digitalWrite	;wreg free
  4005  001466                     
  4006                           ;ssd.c: 61:     digitalWrite(PIN_A3,0);
  4007  001466  0E00               	movlw	0
  4008  001468  6E02               	movwf	(digitalWrite@pin+1)^0,c
  4009  00146A  0E03               	movlw	3
  4010  00146C  6E01               	movwf	digitalWrite@pin^0,c
  4011  00146E  0E00               	movlw	0
  4012  001470  6E04               	movwf	(digitalWrite@value+1)^0,c
  4013  001472  0E00               	movlw	0
  4014  001474  6E03               	movwf	digitalWrite@value^0,c
  4015  001476  EC90  F006         	call	_digitalWrite	;wreg free
  4016  00147A                     
  4017                           ;ssd.c: 62:     digitalWrite(PIN_A4,0);
  4018  00147A  0E00               	movlw	0
  4019  00147C  6E02               	movwf	(digitalWrite@pin+1)^0,c
  4020  00147E  0E04               	movlw	4
  4021  001480  6E01               	movwf	digitalWrite@pin^0,c
  4022  001482  0E00               	movlw	0
  4023  001484  6E04               	movwf	(digitalWrite@value+1)^0,c
  4024  001486  0E00               	movlw	0
  4025  001488  6E03               	movwf	digitalWrite@value^0,c
  4026  00148A  EC90  F006         	call	_digitalWrite	;wreg free
  4027  00148E                     
  4028                           ;ssd.c: 63:     digitalWrite(PIN_A5,0);
  4029  00148E  0E00               	movlw	0
  4030  001490  6E02               	movwf	(digitalWrite@pin+1)^0,c
  4031  001492  0E05               	movlw	5
  4032  001494  6E01               	movwf	digitalWrite@pin^0,c
  4033  001496  0E00               	movlw	0
  4034  001498  6E04               	movwf	(digitalWrite@value+1)^0,c
  4035  00149A  0E00               	movlw	0
  4036  00149C  6E03               	movwf	digitalWrite@value^0,c
  4037  00149E  EC90  F006         	call	_digitalWrite	;wreg free
  4038                           
  4039                           ;ssd.c: 66:     PORTD = 0x00;
  4040  0014A2  0E00               	movlw	0
  4041  0014A4  6E83               	movwf	131,c	;volatile
  4042                           
  4043                           ;ssd.c: 69:     switch (display)
  4044  0014A6  EFB1  F00A         	goto	l2536
  4045  0014AA                     l2508:
  4046                           
  4047                           ;ssd.c: 72:             PORTD = valor[v0];
  4048  0014AA  0E01               	movlw	low _valor@ssd$F439
  4049  0014AC  2475               	addwf	_v0^0,w,c
  4050  0014AE  6EF6               	movwf	tblptrl,c
  4051  0014B0  6AF7               	clrf	tblptrh,c
  4052  0014B2  0E06               	movlw	high _valor@ssd$F439
  4053  0014B4  22F7               	addwfc	tblptrh,f,c
  4054  0014B6                     	if	0	;There are less than 3 active tblptr bytes
  4055  0014B6                     	endif
  4056  0014B6  0008               	tblrd		*
  4057  0014B8  CFF5 FF83          	movff	tablat,3971	;volatile
  4058  0014BC                     
  4059                           ;ssd.c: 73:             digitalWrite(PIN_A2,1);
  4060  0014BC  0E00               	movlw	0
  4061  0014BE  6E02               	movwf	(digitalWrite@pin+1)^0,c
  4062  0014C0  0E02               	movlw	2
  4063  0014C2  6E01               	movwf	digitalWrite@pin^0,c
  4064  0014C4  0E00               	movlw	0
  4065  0014C6  6E04               	movwf	(digitalWrite@value+1)^0,c
  4066  0014C8  0E01               	movlw	1
  4067  0014CA  6E03               	movwf	digitalWrite@value^0,c
  4068  0014CC  EC90  F006         	call	_digitalWrite	;wreg free
  4069  0014D0                     
  4070                           ;ssd.c: 74:             display = 1;
  4071  0014D0  0E01               	movlw	1
  4072  0014D2  6E76               	movwf	_display^0,c
  4073                           
  4074                           ;ssd.c: 75:             break;
  4075  0014D4  EFCE  F00A         	goto	l365
  4076  0014D8                     l2514:
  4077                           
  4078                           ;ssd.c: 78:             PORTD = valor[v1];
  4079  0014D8  0E01               	movlw	low _valor@ssd$F439
  4080  0014DA  2474               	addwf	_v1^0,w,c
  4081  0014DC  6EF6               	movwf	tblptrl,c
  4082  0014DE  6AF7               	clrf	tblptrh,c
  4083  0014E0  0E06               	movlw	high _valor@ssd$F439
  4084  0014E2  22F7               	addwfc	tblptrh,f,c
  4085  0014E4                     	if	0	;There are less than 3 active tblptr bytes
  4086  0014E4                     	endif
  4087  0014E4  0008               	tblrd		*
  4088  0014E6  CFF5 FF83          	movff	tablat,3971	;volatile
  4089  0014EA                     
  4090                           ;ssd.c: 79:             digitalWrite(PIN_A3,1);
  4091  0014EA  0E00               	movlw	0
  4092  0014EC  6E02               	movwf	(digitalWrite@pin+1)^0,c
  4093  0014EE  0E03               	movlw	3
  4094  0014F0  6E01               	movwf	digitalWrite@pin^0,c
  4095  0014F2  0E00               	movlw	0
  4096  0014F4  6E04               	movwf	(digitalWrite@value+1)^0,c
  4097  0014F6  0E01               	movlw	1
  4098  0014F8  6E03               	movwf	digitalWrite@value^0,c
  4099  0014FA  EC90  F006         	call	_digitalWrite	;wreg free
  4100  0014FE                     
  4101                           ;ssd.c: 80:             display = 2;
  4102  0014FE  0E02               	movlw	2
  4103  001500  6E76               	movwf	_display^0,c
  4104                           
  4105                           ;ssd.c: 81:             break;
  4106  001502  EFCE  F00A         	goto	l365
  4107  001506                     l2520:
  4108                           
  4109                           ;ssd.c: 84:             PORTD = valor[v2];
  4110  001506  0E01               	movlw	low _valor@ssd$F439
  4111  001508  2473               	addwf	_v2^0,w,c
  4112  00150A  6EF6               	movwf	tblptrl,c
  4113  00150C  6AF7               	clrf	tblptrh,c
  4114  00150E  0E06               	movlw	high _valor@ssd$F439
  4115  001510  22F7               	addwfc	tblptrh,f,c
  4116  001512                     	if	0	;There are less than 3 active tblptr bytes
  4117  001512                     	endif
  4118  001512  0008               	tblrd		*
  4119  001514  CFF5 FF83          	movff	tablat,3971	;volatile
  4120  001518                     
  4121                           ;ssd.c: 85:             digitalWrite(PIN_A4,1);
  4122  001518  0E00               	movlw	0
  4123  00151A  6E02               	movwf	(digitalWrite@pin+1)^0,c
  4124  00151C  0E04               	movlw	4
  4125  00151E  6E01               	movwf	digitalWrite@pin^0,c
  4126  001520  0E00               	movlw	0
  4127  001522  6E04               	movwf	(digitalWrite@value+1)^0,c
  4128  001524  0E01               	movlw	1
  4129  001526  6E03               	movwf	digitalWrite@value^0,c
  4130  001528  EC90  F006         	call	_digitalWrite	;wreg free
  4131  00152C                     
  4132                           ;ssd.c: 86:             display = 3;
  4133  00152C  0E03               	movlw	3
  4134  00152E  6E76               	movwf	_display^0,c
  4135                           
  4136                           ;ssd.c: 87:             break;
  4137  001530  EFCE  F00A         	goto	l365
  4138  001534                     l2526:
  4139                           
  4140                           ;ssd.c: 90:             PORTD = valor[v3];
  4141  001534  0E01               	movlw	low _valor@ssd$F439
  4142  001536  2472               	addwf	_v3^0,w,c
  4143  001538  6EF6               	movwf	tblptrl,c
  4144  00153A  6AF7               	clrf	tblptrh,c
  4145  00153C  0E06               	movlw	high _valor@ssd$F439
  4146  00153E  22F7               	addwfc	tblptrh,f,c
  4147  001540                     	if	0	;There are less than 3 active tblptr bytes
  4148  001540                     	endif
  4149  001540  0008               	tblrd		*
  4150  001542  CFF5 FF83          	movff	tablat,3971	;volatile
  4151  001546                     
  4152                           ;ssd.c: 91:             digitalWrite(PIN_A5,1);
  4153  001546  0E00               	movlw	0
  4154  001548  6E02               	movwf	(digitalWrite@pin+1)^0,c
  4155  00154A  0E05               	movlw	5
  4156  00154C  6E01               	movwf	digitalWrite@pin^0,c
  4157  00154E  0E00               	movlw	0
  4158  001550  6E04               	movwf	(digitalWrite@value+1)^0,c
  4159  001552  0E01               	movlw	1
  4160  001554  6E03               	movwf	digitalWrite@value^0,c
  4161  001556  EC90  F006         	call	_digitalWrite	;wreg free
  4162  00155A                     l2530:
  4163                           
  4164                           ;ssd.c: 92:             display = 0;
  4165  00155A  0E00               	movlw	0
  4166  00155C  6E76               	movwf	_display^0,c
  4167                           
  4168                           ;ssd.c: 93:             break;
  4169  00155E  EFCE  F00A         	goto	l365
  4170  001562                     l2536:
  4171  001562  5076               	movf	_display^0,w,c
  4172  001564  6E07               	movwf	??_ssdUpdate^0,c
  4173  001566  6A08               	clrf	(??_ssdUpdate+1)^0,c
  4174                           
  4175                           ; Switch on 2 bytes has been partitioned into a top level switch of size 1, and 1 sub-sw
      +                          itches
  4176                           ; Switch size 1, requested type "simple"
  4177                           ; Number of cases is 1, Range of values is 0 to 0
  4178                           ; switch strategies available:
  4179                           ; Name         Instructions Cycles
  4180                           ; simple_byte            4     3 (average)
  4181                           ;	Chosen strategy is simple_byte
  4182  001568  5008               	movf	(??_ssdUpdate+1)^0,w,c
  4183  00156A  0A00               	xorlw	0	; case 0
  4184  00156C  B4D8               	btfsc	status,2,c
  4185  00156E  EFBB  F00A         	goto	l3294
  4186  001572  EFAD  F00A         	goto	l2530
  4187  001576                     l3294:
  4188                           
  4189                           ; Switch size 1, requested type "simple"
  4190                           ; Number of cases is 4, Range of values is 0 to 3
  4191                           ; switch strategies available:
  4192                           ; Name         Instructions Cycles
  4193                           ; simple_byte           13     7 (average)
  4194                           ;	Chosen strategy is simple_byte
  4195  001576  5007               	movf	??_ssdUpdate^0,w,c
  4196  001578  0A00               	xorlw	0	; case 0
  4197  00157A  B4D8               	btfsc	status,2,c
  4198  00157C  EF55  F00A         	goto	l2508
  4199  001580  0A01               	xorlw	1	; case 1
  4200  001582  B4D8               	btfsc	status,2,c
  4201  001584  EF6C  F00A         	goto	l2514
  4202  001588  0A03               	xorlw	3	; case 2
  4203  00158A  B4D8               	btfsc	status,2,c
  4204  00158C  EF83  F00A         	goto	l2520
  4205  001590  0A01               	xorlw	1	; case 3
  4206  001592  B4D8               	btfsc	status,2,c
  4207  001594  EF9A  F00A         	goto	l2526
  4208  001598  EFAD  F00A         	goto	l2530
  4209  00159C                     l365:
  4210  00159C  0012               	return		;funcret
  4211  00159E                     __end_of_ssdUpdate:
  4212                           	callstack 0
  4213                           
  4214 ;; *************** function _digitalWrite *****************
  4215 ;; Defined at:
  4216 ;;		line 14 in file "io.c"
  4217 ;; Parameters:    Size  Location     Type
  4218 ;;  pin             2    0[COMRAM] int 
  4219 ;;  value           2    2[COMRAM] int 
  4220 ;; Auto vars:     Size  Location     Type
  4221 ;;		None
  4222 ;; Return value:  Size  Location     Type
  4223 ;;                  1    wreg      void 
  4224 ;; Registers used:
  4225 ;;		wreg, status,2, status,0
  4226 ;; Tracked objects:
  4227 ;;		On entry : 0/0
  4228 ;;		On exit  : 0/0
  4229 ;;		Unchanged: 0/0
  4230 ;; Data sizes:     COMRAM   BANK0   BANK1   BANK2   BANK3   BANK4   BANK5
  4231 ;;      Params:         4       0       0       0       0       0       0
  4232 ;;      Locals:         0       0       0       0       0       0       0
  4233 ;;      Temps:          2       0       0       0       0       0       0
  4234 ;;      Totals:         6       0       0       0       0       0       0
  4235 ;;Total ram usage:        6 bytes
  4236 ;; Hardware stack levels used: 1
  4237 ;; This function calls:
  4238 ;;		Nothing
  4239 ;; This function is called by:
  4240 ;;		_lcdCommand
  4241 ;;		_lcdData
  4242 ;;		_cronometro
  4243 ;;		_ssdUpdate
  4244 ;; This function uses a non-reentrant model
  4245 ;;
  4246                           
  4247                           	psect	text27
  4248  000D20                     __ptext27:
  4249                           	callstack 0
  4250  000D20                     _digitalWrite:
  4251                           	callstack 28
  4252  000D20                     
  4253                           ;io.c: 16:     if(pin <8){
  4254  000D20  BE02               	btfsc	(digitalWrite@pin+1)^0,7,c
  4255  000D22  EF9E  F006         	goto	u1780
  4256  000D26  5002               	movf	(digitalWrite@pin+1)^0,w,c
  4257  000D28  E107               	bnz	u1781
  4258  000D2A  0E08               	movlw	8
  4259  000D2C  5C01               	subwf	digitalWrite@pin^0,w,c
  4260  000D2E  B0D8               	btfsc	status,0,c
  4261  000D30  EF9C  F006         	goto	u1781
  4262  000D34  EF9E  F006         	goto	u1780
  4263  000D38                     u1781:
  4264  000D38  EFC8  F006         	goto	l2238
  4265  000D3C                     u1780:
  4266  000D3C                     
  4267                           ;io.c: 17:         if (value){ ((PORTA) |= (1<<(pin)));}
  4268  000D3C  5003               	movf	digitalWrite@value^0,w,c
  4269  000D3E  1004               	iorwf	(digitalWrite@value+1)^0,w,c
  4270  000D40  B4D8               	btfsc	status,2,c
  4271  000D42  EFA5  F006         	goto	u1791
  4272  000D46  EFA7  F006         	goto	u1790
  4273  000D4A                     u1791:
  4274  000D4A  EFB7  F006         	goto	l2236
  4275  000D4E                     u1790:
  4276  000D4E  C001  F005         	movff	digitalWrite@pin,??_digitalWrite
  4277  000D52  0E01               	movlw	1
  4278  000D54  6E06               	movwf	(??_digitalWrite+1)^0,c
  4279  000D56  2A05               	incf	??_digitalWrite^0,f,c
  4280  000D58  EFB0  F006         	goto	u1804
  4281  000D5C                     u1805:
  4282  000D5C  90D8               	bcf	status,0,c
  4283  000D5E  3606               	rlcf	(??_digitalWrite+1)^0,f,c
  4284  000D60                     u1804:
  4285  000D60  2E05               	decfsz	??_digitalWrite^0,f,c
  4286  000D62  EFAE  F006         	goto	u1805
  4287  000D66  5006               	movf	(??_digitalWrite+1)^0,w,c
  4288  000D68  1280               	iorwf	128,f,c	;volatile
  4289  000D6A  EFB6  F007         	goto	l52
  4290  000D6E                     l2236:
  4291  000D6E  C001  F005         	movff	digitalWrite@pin,??_digitalWrite
  4292  000D72  0E01               	movlw	1
  4293  000D74  6E06               	movwf	(??_digitalWrite+1)^0,c
  4294  000D76  2A05               	incf	??_digitalWrite^0,f,c
  4295  000D78  EFC0  F006         	goto	u1814
  4296  000D7C                     u1815:
  4297  000D7C  90D8               	bcf	status,0,c
  4298  000D7E  3606               	rlcf	(??_digitalWrite+1)^0,f,c
  4299  000D80                     u1814:
  4300  000D80  2E05               	decfsz	??_digitalWrite^0,f,c
  4301  000D82  EFBE  F006         	goto	u1815
  4302  000D86  5006               	movf	(??_digitalWrite+1)^0,w,c
  4303  000D88  0AFF               	xorlw	255
  4304  000D8A  1680               	andwf	128,f,c	;volatile
  4305  000D8C  EFB6  F007         	goto	l52
  4306  000D90                     l2238:
  4307  000D90  BE02               	btfsc	(digitalWrite@pin+1)^0,7,c
  4308  000D92  EFD6  F006         	goto	u1820
  4309  000D96  5002               	movf	(digitalWrite@pin+1)^0,w,c
  4310  000D98  E107               	bnz	u1821
  4311  000D9A  0E10               	movlw	16
  4312  000D9C  5C01               	subwf	digitalWrite@pin^0,w,c
  4313  000D9E  B0D8               	btfsc	status,0,c
  4314  000DA0  EFD4  F006         	goto	u1821
  4315  000DA4  EFD6  F006         	goto	u1820
  4316  000DA8                     u1821:
  4317  000DA8  EF04  F007         	goto	l2246
  4318  000DAC                     u1820:
  4319  000DAC                     
  4320                           ;io.c: 20:         pin -=8;
  4321  000DAC  0EF8               	movlw	248
  4322  000DAE  2601               	addwf	digitalWrite@pin^0,f,c
  4323  000DB0  0EFF               	movlw	255
  4324  000DB2  2202               	addwfc	(digitalWrite@pin+1)^0,f,c
  4325                           
  4326                           ;io.c: 21:         if (value){ ((PORTB) |= (1<<(pin)));}
  4327  000DB4  5003               	movf	digitalWrite@value^0,w,c
  4328  000DB6  1004               	iorwf	(digitalWrite@value+1)^0,w,c
  4329  000DB8  B4D8               	btfsc	status,2,c
  4330  000DBA  EFE1  F006         	goto	u1831
  4331  000DBE  EFE3  F006         	goto	u1830
  4332  000DC2                     u1831:
  4333  000DC2  EFF3  F006         	goto	l2244
  4334  000DC6                     u1830:
  4335  000DC6  C001  F005         	movff	digitalWrite@pin,??_digitalWrite
  4336  000DCA  0E01               	movlw	1
  4337  000DCC  6E06               	movwf	(??_digitalWrite+1)^0,c
  4338  000DCE  2A05               	incf	??_digitalWrite^0,f,c
  4339  000DD0  EFEC  F006         	goto	u1844
  4340  000DD4                     u1845:
  4341  000DD4  90D8               	bcf	status,0,c
  4342  000DD6  3606               	rlcf	(??_digitalWrite+1)^0,f,c
  4343  000DD8                     u1844:
  4344  000DD8  2E05               	decfsz	??_digitalWrite^0,f,c
  4345  000DDA  EFEA  F006         	goto	u1845
  4346  000DDE  5006               	movf	(??_digitalWrite+1)^0,w,c
  4347  000DE0  1281               	iorwf	129,f,c	;volatile
  4348  000DE2  EFB6  F007         	goto	l52
  4349  000DE6                     l2244:
  4350  000DE6  C001  F005         	movff	digitalWrite@pin,??_digitalWrite
  4351  000DEA  0E01               	movlw	1
  4352  000DEC  6E06               	movwf	(??_digitalWrite+1)^0,c
  4353  000DEE  2A05               	incf	??_digitalWrite^0,f,c
  4354  000DF0  EFFC  F006         	goto	u1854
  4355  000DF4                     u1855:
  4356  000DF4  90D8               	bcf	status,0,c
  4357  000DF6  3606               	rlcf	(??_digitalWrite+1)^0,f,c
  4358  000DF8                     u1854:
  4359  000DF8  2E05               	decfsz	??_digitalWrite^0,f,c
  4360  000DFA  EFFA  F006         	goto	u1855
  4361  000DFE  5006               	movf	(??_digitalWrite+1)^0,w,c
  4362  000E00  0AFF               	xorlw	255
  4363  000E02  1681               	andwf	129,f,c	;volatile
  4364  000E04  EFB6  F007         	goto	l52
  4365  000E08                     l2246:
  4366  000E08  BE02               	btfsc	(digitalWrite@pin+1)^0,7,c
  4367  000E0A  EF12  F007         	goto	u1860
  4368  000E0E  5002               	movf	(digitalWrite@pin+1)^0,w,c
  4369  000E10  E107               	bnz	u1861
  4370  000E12  0E18               	movlw	24
  4371  000E14  5C01               	subwf	digitalWrite@pin^0,w,c
  4372  000E16  B0D8               	btfsc	status,0,c
  4373  000E18  EF10  F007         	goto	u1861
  4374  000E1C  EF12  F007         	goto	u1860
  4375  000E20                     u1861:
  4376  000E20  EF40  F007         	goto	l2254
  4377  000E24                     u1860:
  4378  000E24                     
  4379                           ;io.c: 24:         pin -=16;
  4380  000E24  0EF0               	movlw	240
  4381  000E26  2601               	addwf	digitalWrite@pin^0,f,c
  4382  000E28  0EFF               	movlw	255
  4383  000E2A  2202               	addwfc	(digitalWrite@pin+1)^0,f,c
  4384                           
  4385                           ;io.c: 25:         if (value){ ((PORTC) |= (1<<(pin)));}
  4386  000E2C  5003               	movf	digitalWrite@value^0,w,c
  4387  000E2E  1004               	iorwf	(digitalWrite@value+1)^0,w,c
  4388  000E30  B4D8               	btfsc	status,2,c
  4389  000E32  EF1D  F007         	goto	u1871
  4390  000E36  EF1F  F007         	goto	u1870
  4391  000E3A                     u1871:
  4392  000E3A  EF2F  F007         	goto	l2252
  4393  000E3E                     u1870:
  4394  000E3E  C001  F005         	movff	digitalWrite@pin,??_digitalWrite
  4395  000E42  0E01               	movlw	1
  4396  000E44  6E06               	movwf	(??_digitalWrite+1)^0,c
  4397  000E46  2A05               	incf	??_digitalWrite^0,f,c
  4398  000E48  EF28  F007         	goto	u1884
  4399  000E4C                     u1885:
  4400  000E4C  90D8               	bcf	status,0,c
  4401  000E4E  3606               	rlcf	(??_digitalWrite+1)^0,f,c
  4402  000E50                     u1884:
  4403  000E50  2E05               	decfsz	??_digitalWrite^0,f,c
  4404  000E52  EF26  F007         	goto	u1885
  4405  000E56  5006               	movf	(??_digitalWrite+1)^0,w,c
  4406  000E58  1282               	iorwf	130,f,c	;volatile
  4407  000E5A  EFB6  F007         	goto	l52
  4408  000E5E                     l2252:
  4409  000E5E  C001  F005         	movff	digitalWrite@pin,??_digitalWrite
  4410  000E62  0E01               	movlw	1
  4411  000E64  6E06               	movwf	(??_digitalWrite+1)^0,c
  4412  000E66  2A05               	incf	??_digitalWrite^0,f,c
  4413  000E68  EF38  F007         	goto	u1894
  4414  000E6C                     u1895:
  4415  000E6C  90D8               	bcf	status,0,c
  4416  000E6E  3606               	rlcf	(??_digitalWrite+1)^0,f,c
  4417  000E70                     u1894:
  4418  000E70  2E05               	decfsz	??_digitalWrite^0,f,c
  4419  000E72  EF36  F007         	goto	u1895
  4420  000E76  5006               	movf	(??_digitalWrite+1)^0,w,c
  4421  000E78  0AFF               	xorlw	255
  4422  000E7A  1682               	andwf	130,f,c	;volatile
  4423  000E7C  EFB6  F007         	goto	l52
  4424  000E80                     l2254:
  4425  000E80  BE02               	btfsc	(digitalWrite@pin+1)^0,7,c
  4426  000E82  EF4E  F007         	goto	u1900
  4427  000E86  5002               	movf	(digitalWrite@pin+1)^0,w,c
  4428  000E88  E107               	bnz	u1901
  4429  000E8A  0E20               	movlw	32
  4430  000E8C  5C01               	subwf	digitalWrite@pin^0,w,c
  4431  000E8E  B0D8               	btfsc	status,0,c
  4432  000E90  EF4C  F007         	goto	u1901
  4433  000E94  EF4E  F007         	goto	u1900
  4434  000E98                     u1901:
  4435  000E98  EF7C  F007         	goto	l2262
  4436  000E9C                     u1900:
  4437  000E9C                     
  4438                           ;io.c: 28:         pin -=24;
  4439  000E9C  0EE8               	movlw	232
  4440  000E9E  2601               	addwf	digitalWrite@pin^0,f,c
  4441  000EA0  0EFF               	movlw	255
  4442  000EA2  2202               	addwfc	(digitalWrite@pin+1)^0,f,c
  4443                           
  4444                           ;io.c: 29:         if (value){ ((PORTD) |= (1<<(pin)));}
  4445  000EA4  5003               	movf	digitalWrite@value^0,w,c
  4446  000EA6  1004               	iorwf	(digitalWrite@value+1)^0,w,c
  4447  000EA8  B4D8               	btfsc	status,2,c
  4448  000EAA  EF59  F007         	goto	u1911
  4449  000EAE  EF5B  F007         	goto	u1910
  4450  000EB2                     u1911:
  4451  000EB2  EF6B  F007         	goto	l2260
  4452  000EB6                     u1910:
  4453  000EB6  C001  F005         	movff	digitalWrite@pin,??_digitalWrite
  4454  000EBA  0E01               	movlw	1
  4455  000EBC  6E06               	movwf	(??_digitalWrite+1)^0,c
  4456  000EBE  2A05               	incf	??_digitalWrite^0,f,c
  4457  000EC0  EF64  F007         	goto	u1924
  4458  000EC4                     u1925:
  4459  000EC4  90D8               	bcf	status,0,c
  4460  000EC6  3606               	rlcf	(??_digitalWrite+1)^0,f,c
  4461  000EC8                     u1924:
  4462  000EC8  2E05               	decfsz	??_digitalWrite^0,f,c
  4463  000ECA  EF62  F007         	goto	u1925
  4464  000ECE  5006               	movf	(??_digitalWrite+1)^0,w,c
  4465  000ED0  1283               	iorwf	131,f,c	;volatile
  4466  000ED2  EFB6  F007         	goto	l52
  4467  000ED6                     l2260:
  4468  000ED6  C001  F005         	movff	digitalWrite@pin,??_digitalWrite
  4469  000EDA  0E01               	movlw	1
  4470  000EDC  6E06               	movwf	(??_digitalWrite+1)^0,c
  4471  000EDE  2A05               	incf	??_digitalWrite^0,f,c
  4472  000EE0  EF74  F007         	goto	u1934
  4473  000EE4                     u1935:
  4474  000EE4  90D8               	bcf	status,0,c
  4475  000EE6  3606               	rlcf	(??_digitalWrite+1)^0,f,c
  4476  000EE8                     u1934:
  4477  000EE8  2E05               	decfsz	??_digitalWrite^0,f,c
  4478  000EEA  EF72  F007         	goto	u1935
  4479  000EEE  5006               	movf	(??_digitalWrite+1)^0,w,c
  4480  000EF0  0AFF               	xorlw	255
  4481  000EF2  1683               	andwf	131,f,c	;volatile
  4482  000EF4  EFB6  F007         	goto	l52
  4483  000EF8                     l2262:
  4484  000EF8  BE02               	btfsc	(digitalWrite@pin+1)^0,7,c
  4485  000EFA  EF8A  F007         	goto	u1940
  4486  000EFE  5002               	movf	(digitalWrite@pin+1)^0,w,c
  4487  000F00  E107               	bnz	u1941
  4488  000F02  0E28               	movlw	40
  4489  000F04  5C01               	subwf	digitalWrite@pin^0,w,c
  4490  000F06  B0D8               	btfsc	status,0,c
  4491  000F08  EF88  F007         	goto	u1941
  4492  000F0C  EF8A  F007         	goto	u1940
  4493  000F10                     u1941:
  4494  000F10  EFB6  F007         	goto	l52
  4495  000F14                     u1940:
  4496  000F14                     
  4497                           ;io.c: 32:         pin -=32;
  4498  000F14  0EE0               	movlw	224
  4499  000F16  2601               	addwf	digitalWrite@pin^0,f,c
  4500  000F18  0EFF               	movlw	255
  4501  000F1A  2202               	addwfc	(digitalWrite@pin+1)^0,f,c
  4502                           
  4503                           ;io.c: 33:         if (value){ ((PORTE) |= (1<<(pin)));}
  4504  000F1C  5003               	movf	digitalWrite@value^0,w,c
  4505  000F1E  1004               	iorwf	(digitalWrite@value+1)^0,w,c
  4506  000F20  B4D8               	btfsc	status,2,c
  4507  000F22  EF95  F007         	goto	u1951
  4508  000F26  EF97  F007         	goto	u1950
  4509  000F2A                     u1951:
  4510  000F2A  EFA7  F007         	goto	l2268
  4511  000F2E                     u1950:
  4512  000F2E  C001  F005         	movff	digitalWrite@pin,??_digitalWrite
  4513  000F32  0E01               	movlw	1
  4514  000F34  6E06               	movwf	(??_digitalWrite+1)^0,c
  4515  000F36  2A05               	incf	??_digitalWrite^0,f,c
  4516  000F38  EFA0  F007         	goto	u1964
  4517  000F3C                     u1965:
  4518  000F3C  90D8               	bcf	status,0,c
  4519  000F3E  3606               	rlcf	(??_digitalWrite+1)^0,f,c
  4520  000F40                     u1964:
  4521  000F40  2E05               	decfsz	??_digitalWrite^0,f,c
  4522  000F42  EF9E  F007         	goto	u1965
  4523  000F46  5006               	movf	(??_digitalWrite+1)^0,w,c
  4524  000F48  1284               	iorwf	132,f,c	;volatile
  4525  000F4A  EFB6  F007         	goto	l52
  4526  000F4E                     l2268:
  4527  000F4E  C001  F005         	movff	digitalWrite@pin,??_digitalWrite
  4528  000F52  0E01               	movlw	1
  4529  000F54  6E06               	movwf	(??_digitalWrite+1)^0,c
  4530  000F56  2A05               	incf	??_digitalWrite^0,f,c
  4531  000F58  EFB0  F007         	goto	u1974
  4532  000F5C                     u1975:
  4533  000F5C  90D8               	bcf	status,0,c
  4534  000F5E  3606               	rlcf	(??_digitalWrite+1)^0,f,c
  4535  000F60                     u1974:
  4536  000F60  2E05               	decfsz	??_digitalWrite^0,f,c
  4537  000F62  EFAE  F007         	goto	u1975
  4538  000F66  5006               	movf	(??_digitalWrite+1)^0,w,c
  4539  000F68  0AFF               	xorlw	255
  4540  000F6A  1684               	andwf	132,f,c	;volatile
  4541  000F6C                     l52:
  4542  000F6C  0012               	return		;funcret
  4543  000F6E                     __end_of_digitalWrite:
  4544                           	callstack 0
  4545                           
  4546 ;; *************** function _ssdDigit *****************
  4547 ;; Defined at:
  4548 ;;		line 38 in file "ssd.c"
  4549 ;; Parameters:    Size  Location     Type
  4550 ;;  val             1    wreg     unsigned char 
  4551 ;;  pos             1    8[COMRAM] unsigned char 
  4552 ;; Auto vars:     Size  Location     Type
  4553 ;;  val             1    9[COMRAM] unsigned char 
  4554 ;; Return value:  Size  Location     Type
  4555 ;;                  1    wreg      void 
  4556 ;; Registers used:
  4557 ;;		wreg, status,2, status,0
  4558 ;; Tracked objects:
  4559 ;;		On entry : 0/0
  4560 ;;		On exit  : 0/0
  4561 ;;		Unchanged: 0/0
  4562 ;; Data sizes:     COMRAM   BANK0   BANK1   BANK2   BANK3   BANK4   BANK5
  4563 ;;      Params:         1       0       0       0       0       0       0
  4564 ;;      Locals:         1       0       0       0       0       0       0
  4565 ;;      Temps:          0       0       0       0       0       0       0
  4566 ;;      Totals:         2       0       0       0       0       0       0
  4567 ;;Total ram usage:        2 bytes
  4568 ;; Hardware stack levels used: 1
  4569 ;; This function calls:
  4570 ;;		Nothing
  4571 ;; This function is called by:
  4572 ;;		_cronometro
  4573 ;; This function uses a non-reentrant model
  4574 ;;
  4575                           
  4576                           	psect	text28
  4577  001EB8                     __ptext28:
  4578                           	callstack 0
  4579  001EB8                     _ssdDigit:
  4580                           	callstack 29
  4581                           
  4582                           ;incstack = 0
  4583                           ;ssdDigit@val stored from wreg
  4584  001EB8  6E0A               	movwf	ssdDigit@val^0,c
  4585  001EBA                     
  4586                           ;ssd.c: 39:     if (pos == 0) {
  4587  001EBA  5009               	movf	ssdDigit@pos^0,w,c
  4588  001EBC  A4D8               	btfss	status,2,c
  4589  001EBE  EF63  F00F         	goto	u2351
  4590  001EC2  EF65  F00F         	goto	u2350
  4591  001EC6                     u2351:
  4592  001EC6  EF67  F00F         	goto	l2486
  4593  001ECA                     u2350:
  4594  001ECA                     
  4595                           ;ssd.c: 40:         v0 = val;
  4596  001ECA  C00A  F075         	movff	ssdDigit@val,_v0
  4597  001ECE                     l2486:
  4598                           
  4599                           ;ssd.c: 42:     if (pos == 1) {
  4600  001ECE  0409               	decf	ssdDigit@pos^0,w,c
  4601  001ED0  A4D8               	btfss	status,2,c
  4602  001ED2  EF6D  F00F         	goto	u2361
  4603  001ED6  EF6F  F00F         	goto	u2360
  4604  001EDA                     u2361:
  4605  001EDA  EF71  F00F         	goto	l2490
  4606  001EDE                     u2360:
  4607  001EDE                     
  4608                           ;ssd.c: 43:         v1 = val;
  4609  001EDE  C00A  F074         	movff	ssdDigit@val,_v1
  4610  001EE2                     l2490:
  4611                           
  4612                           ;ssd.c: 45:     if (pos == 2) {
  4613  001EE2  0E02               	movlw	2
  4614  001EE4  1809               	xorwf	ssdDigit@pos^0,w,c
  4615  001EE6  A4D8               	btfss	status,2,c
  4616  001EE8  EF78  F00F         	goto	u2371
  4617  001EEC  EF7A  F00F         	goto	u2370
  4618  001EF0                     u2371:
  4619  001EF0  EF7C  F00F         	goto	l2494
  4620  001EF4                     u2370:
  4621  001EF4                     
  4622                           ;ssd.c: 46:         v2 = val;
  4623  001EF4  C00A  F073         	movff	ssdDigit@val,_v2
  4624  001EF8                     l2494:
  4625                           
  4626                           ;ssd.c: 48:     if (pos == 3) {
  4627  001EF8  0E03               	movlw	3
  4628  001EFA  1809               	xorwf	ssdDigit@pos^0,w,c
  4629  001EFC  A4D8               	btfss	status,2,c
  4630  001EFE  EF83  F00F         	goto	u2381
  4631  001F02  EF85  F00F         	goto	u2380
  4632  001F06                     u2381:
  4633  001F06  EF87  F00F         	goto	l355
  4634  001F0A                     u2380:
  4635  001F0A                     
  4636                           ;ssd.c: 49:         v3 = val;
  4637  001F0A  C00A  F072         	movff	ssdDigit@val,_v3
  4638  001F0E                     l355:
  4639  001F0E  0012               	return		;funcret
  4640  001F10                     __end_of_ssdDigit:
  4641                           	callstack 0
  4642                           
  4643 ;; *************** function ___wmul *****************
  4644 ;; Defined at:
  4645 ;;		line 15 in file "C:\Program Files\Microchip\xc8\v2.32\pic\sources\c99\common\Umul16.c"
  4646 ;; Parameters:    Size  Location     Type
  4647 ;;  multiplier      2    0[COMRAM] unsigned int 
  4648 ;;  multiplicand    2    2[COMRAM] unsigned int 
  4649 ;; Auto vars:     Size  Location     Type
  4650 ;;  product         2    4[COMRAM] unsigned int 
  4651 ;; Return value:  Size  Location     Type
  4652 ;;                  2    0[COMRAM] unsigned int 
  4653 ;; Registers used:
  4654 ;;		wreg, status,2, status,0, prodl, prodh
  4655 ;; Tracked objects:
  4656 ;;		On entry : 0/0
  4657 ;;		On exit  : 0/0
  4658 ;;		Unchanged: 0/0
  4659 ;; Data sizes:     COMRAM   BANK0   BANK1   BANK2   BANK3   BANK4   BANK5
  4660 ;;      Params:         4       0       0       0       0       0       0
  4661 ;;      Locals:         2       0       0       0       0       0       0
  4662 ;;      Temps:          0       0       0       0       0       0       0
  4663 ;;      Totals:         6       0       0       0       0       0       0
  4664 ;;Total ram usage:        6 bytes
  4665 ;; Hardware stack levels used: 1
  4666 ;; This function calls:
  4667 ;;		Nothing
  4668 ;; This function is called by:
  4669 ;;		_cronometro
  4670 ;;		_pwmSet
  4671 ;; This function uses a non-reentrant model
  4672 ;;
  4673                           
  4674                           	psect	text29
  4675  002110                     __ptext29:
  4676                           	callstack 0
  4677  002110                     ___wmul:
  4678                           	callstack 28
  4679  002110  5001               	movf	___wmul@multiplier^0,w,c
  4680  002112  0203               	mulwf	___wmul@multiplicand^0,c
  4681  002114  CFF3 F005          	movff	prodl,___wmul@product
  4682  002118  CFF4 F006          	movff	prodh,___wmul@product+1
  4683  00211C  5001               	movf	___wmul@multiplier^0,w,c
  4684  00211E  0204               	mulwf	(___wmul@multiplicand+1)^0,c
  4685  002120  50F3               	movf	243,w,c
  4686  002122  2606               	addwf	(___wmul@product+1)^0,f,c
  4687  002124  5002               	movf	(___wmul@multiplier+1)^0,w,c
  4688  002126  0203               	mulwf	___wmul@multiplicand^0,c
  4689  002128  50F3               	movf	243,w,c
  4690  00212A  2606               	addwf	(___wmul@product+1)^0,f,c
  4691  00212C  C005  F001         	movff	___wmul@product,?___wmul
  4692  002130  C006  F002         	movff	___wmul@product+1,?___wmul+1
  4693  002134  0012               	return		;funcret
  4694  002136                     __end_of___wmul:
  4695                           	callstack 0
  4696                           
  4697 ;; *************** function ___flge *****************
  4698 ;; Defined at:
  4699 ;;		line 4 in file "C:\Program Files\Microchip\xc8\v2.32\pic\sources\c99\common\flge.c"
  4700 ;; Parameters:    Size  Location     Type
  4701 ;;  ff1             4    0[COMRAM] unsigned int 
  4702 ;;  ff2             4    4[COMRAM] unsigned int 
  4703 ;; Auto vars:     Size  Location     Type
  4704 ;;		None
  4705 ;; Return value:  Size  Location     Type
  4706 ;;		None               void
  4707 ;; Registers used:
  4708 ;;		wreg, status,2, status,0
  4709 ;; Tracked objects:
  4710 ;;		On entry : 0/0
  4711 ;;		On exit  : 0/0
  4712 ;;		Unchanged: 0/0
  4713 ;; Data sizes:     COMRAM   BANK0   BANK1   BANK2   BANK3   BANK4   BANK5
  4714 ;;      Params:         8       0       0       0       0       0       0
  4715 ;;      Locals:         0       0       0       0       0       0       0
  4716 ;;      Temps:          4       0       0       0       0       0       0
  4717 ;;      Totals:        12       0       0       0       0       0       0
  4718 ;;Total ram usage:       12 bytes
  4719 ;; Hardware stack levels used: 1
  4720 ;; This function calls:
  4721 ;;		Nothing
  4722 ;; This function is called by:
  4723 ;;		_cronometro
  4724 ;; This function uses a non-reentrant model
  4725 ;;
  4726                           
  4727                           	psect	text30
  4728  0017D2                     __ptext30:
  4729                           	callstack 0
  4730  0017D2                     ___flge:
  4731                           	callstack 29
  4732  0017D2  0E00               	movlw	0
  4733  0017D4  1401               	andwf	___flge@ff1^0,w,c
  4734  0017D6  6E09               	movwf	??___flge^0,c
  4735  0017D8  0E00               	movlw	0
  4736  0017DA  1402               	andwf	(___flge@ff1+1)^0,w,c
  4737  0017DC  6E0A               	movwf	(??___flge+1)^0,c
  4738  0017DE  0E80               	movlw	128
  4739  0017E0  1403               	andwf	(___flge@ff1+2)^0,w,c
  4740  0017E2  6E0B               	movwf	(??___flge+2)^0,c
  4741  0017E4  0E7F               	movlw	127
  4742  0017E6  1404               	andwf	(___flge@ff1+3)^0,w,c
  4743  0017E8  6E0C               	movwf	(??___flge+3)^0,c
  4744  0017EA  5009               	movf	??___flge^0,w,c
  4745  0017EC  100A               	iorwf	(??___flge+1)^0,w,c
  4746  0017EE  100B               	iorwf	(??___flge+2)^0,w,c
  4747  0017F0  100C               	iorwf	(??___flge+3)^0,w,c
  4748  0017F2  A4D8               	btfss	status,2,c
  4749  0017F4  EFFE  F00B         	goto	u2921
  4750  0017F8  EF00  F00C         	goto	u2920
  4751  0017FC                     u2921:
  4752  0017FC  EF08  F00C         	goto	l2880
  4753  001800                     u2920:
  4754  001800  0E00               	movlw	0
  4755  001802  6E01               	movwf	___flge@ff1^0,c
  4756  001804  0E00               	movlw	0
  4757  001806  6E02               	movwf	(___flge@ff1+1)^0,c
  4758  001808  0E00               	movlw	0
  4759  00180A  6E03               	movwf	(___flge@ff1+2)^0,c
  4760  00180C  0E00               	movlw	0
  4761  00180E  6E04               	movwf	(___flge@ff1+3)^0,c
  4762  001810                     l2880:
  4763  001810  0E00               	movlw	0
  4764  001812  1405               	andwf	___flge@ff2^0,w,c
  4765  001814  6E09               	movwf	??___flge^0,c
  4766  001816  0E00               	movlw	0
  4767  001818  1406               	andwf	(___flge@ff2+1)^0,w,c
  4768  00181A  6E0A               	movwf	(??___flge+1)^0,c
  4769  00181C  0E80               	movlw	128
  4770  00181E  1407               	andwf	(___flge@ff2+2)^0,w,c
  4771  001820  6E0B               	movwf	(??___flge+2)^0,c
  4772  001822  0E7F               	movlw	127
  4773  001824  1408               	andwf	(___flge@ff2+3)^0,w,c
  4774  001826  6E0C               	movwf	(??___flge+3)^0,c
  4775  001828  5009               	movf	??___flge^0,w,c
  4776  00182A  100A               	iorwf	(??___flge+1)^0,w,c
  4777  00182C  100B               	iorwf	(??___flge+2)^0,w,c
  4778  00182E  100C               	iorwf	(??___flge+3)^0,w,c
  4779  001830  A4D8               	btfss	status,2,c
  4780  001832  EF1D  F00C         	goto	u2931
  4781  001836  EF1F  F00C         	goto	u2930
  4782  00183A                     u2931:
  4783  00183A  EF27  F00C         	goto	l2884
  4784  00183E                     u2930:
  4785  00183E  0E00               	movlw	0
  4786  001840  6E05               	movwf	___flge@ff2^0,c
  4787  001842  0E00               	movlw	0
  4788  001844  6E06               	movwf	(___flge@ff2+1)^0,c
  4789  001846  0E00               	movlw	0
  4790  001848  6E07               	movwf	(___flge@ff2+2)^0,c
  4791  00184A  0E00               	movlw	0
  4792  00184C  6E08               	movwf	(___flge@ff2+3)^0,c
  4793  00184E                     l2884:
  4794  00184E  AE04               	btfss	(___flge@ff1+3)^0,7,c
  4795  001850  EF2C  F00C         	goto	u2941
  4796  001854  EF2E  F00C         	goto	u2940
  4797  001858                     u2941:
  4798  001858  EF37  F00C         	goto	l2888
  4799  00185C                     u2940:
  4800  00185C  6C01               	negf	___flge@ff1^0,c
  4801  00185E  1E02               	comf	(___flge@ff1+1)^0,f,c
  4802  001860  B0D8               	btfsc	status,0,c
  4803  001862  2A02               	incf	(___flge@ff1+1)^0,f,c
  4804  001864  1E03               	comf	(___flge@ff1+2)^0,f,c
  4805  001866  B0D8               	btfsc	status,0,c
  4806  001868  2A03               	incf	(___flge@ff1+2)^0,f,c
  4807  00186A  0E80               	movlw	128
  4808  00186C  5604               	subfwb	(___flge@ff1+3)^0,f,c
  4809  00186E                     l2888:
  4810  00186E  AE08               	btfss	(___flge@ff2+3)^0,7,c
  4811  001870  EF3C  F00C         	goto	u2951
  4812  001874  EF3E  F00C         	goto	u2950
  4813  001878                     u2951:
  4814  001878  EF47  F00C         	goto	l636
  4815  00187C                     u2950:
  4816  00187C  6C05               	negf	___flge@ff2^0,c
  4817  00187E  1E06               	comf	(___flge@ff2+1)^0,f,c
  4818  001880  B0D8               	btfsc	status,0,c
  4819  001882  2A06               	incf	(___flge@ff2+1)^0,f,c
  4820  001884  1E07               	comf	(___flge@ff2+2)^0,f,c
  4821  001886  B0D8               	btfsc	status,0,c
  4822  001888  2A07               	incf	(___flge@ff2+2)^0,f,c
  4823  00188A  0E80               	movlw	128
  4824  00188C  5608               	subfwb	(___flge@ff2+3)^0,f,c
  4825  00188E                     l636:
  4826  00188E  0E00               	movlw	0
  4827  001890  1A01               	xorwf	___flge@ff1^0,f,c
  4828  001892  0E00               	movlw	0
  4829  001894  1A02               	xorwf	(___flge@ff1+1)^0,f,c
  4830  001896  0E00               	movlw	0
  4831  001898  1A03               	xorwf	(___flge@ff1+2)^0,f,c
  4832  00189A  0E80               	movlw	128
  4833  00189C  1A04               	xorwf	(___flge@ff1+3)^0,f,c
  4834  00189E  0E00               	movlw	0
  4835  0018A0  1A05               	xorwf	___flge@ff2^0,f,c
  4836  0018A2  0E00               	movlw	0
  4837  0018A4  1A06               	xorwf	(___flge@ff2+1)^0,f,c
  4838  0018A6  0E00               	movlw	0
  4839  0018A8  1A07               	xorwf	(___flge@ff2+2)^0,f,c
  4840  0018AA  0E80               	movlw	128
  4841  0018AC  1A08               	xorwf	(___flge@ff2+3)^0,f,c
  4842  0018AE  5005               	movf	___flge@ff2^0,w,c
  4843  0018B0  5C01               	subwf	___flge@ff1^0,w,c
  4844  0018B2  5006               	movf	(___flge@ff2+1)^0,w,c
  4845  0018B4  5802               	subwfb	(___flge@ff1+1)^0,w,c
  4846  0018B6  5007               	movf	(___flge@ff2+2)^0,w,c
  4847  0018B8  5803               	subwfb	(___flge@ff1+2)^0,w,c
  4848  0018BA  5008               	movf	(___flge@ff2+3)^0,w,c
  4849  0018BC  5804               	subwfb	(___flge@ff1+3)^0,w,c
  4850  0018BE  B0D8               	btfsc	status,0,c
  4851  0018C0  EF64  F00C         	goto	u2961
  4852  0018C4  EF66  F00C         	goto	u2960
  4853  0018C8                     u2961:
  4854  0018C8  EF69  F00C         	goto	l2894
  4855  0018CC                     u2960:
  4856  0018CC  90D8               	bcf	status,0,c
  4857  0018CE  EF6A  F00C         	goto	l641
  4858  0018D2                     l2894:
  4859  0018D2  80D8               	bsf	status,0,c
  4860  0018D4                     l641:
  4861  0018D4  0012               	return		;funcret
  4862  0018D6                     __end_of___flge:
  4863                           	callstack 0
  4864                           
  4865 ;; *************** function ___fladd *****************
  4866 ;; Defined at:
  4867 ;;		line 10 in file "C:\Program Files\Microchip\xc8\v2.32\pic\sources\c99\common\sprcadd.c"
  4868 ;; Parameters:    Size  Location     Type
  4869 ;;  b               4    0[COMRAM] unsigned int 
  4870 ;;  a               4    4[COMRAM] unsigned int 
  4871 ;; Auto vars:     Size  Location     Type
  4872 ;;  grs             1   15[COMRAM] unsigned char 
  4873 ;;  bexp            1   14[COMRAM] unsigned char 
  4874 ;;  aexp            1   13[COMRAM] unsigned char 
  4875 ;;  signs           1   12[COMRAM] unsigned char 
  4876 ;; Return value:  Size  Location     Type
  4877 ;;                  4    0[COMRAM] unsigned char 
  4878 ;; Registers used:
  4879 ;;		wreg, status,2, status,0
  4880 ;; Tracked objects:
  4881 ;;		On entry : 0/0
  4882 ;;		On exit  : 0/0
  4883 ;;		Unchanged: 0/0
  4884 ;; Data sizes:     COMRAM   BANK0   BANK1   BANK2   BANK3   BANK4   BANK5
  4885 ;;      Params:         8       0       0       0       0       0       0
  4886 ;;      Locals:         4       0       0       0       0       0       0
  4887 ;;      Temps:          4       0       0       0       0       0       0
  4888 ;;      Totals:        16       0       0       0       0       0       0
  4889 ;;Total ram usage:       16 bytes
  4890 ;; Hardware stack levels used: 1
  4891 ;; This function calls:
  4892 ;;		Nothing
  4893 ;; This function is called by:
  4894 ;;		_cronometro
  4895 ;; This function uses a non-reentrant model
  4896 ;;
  4897                           
  4898                           	psect	text31
  4899  000612                     __ptext31:
  4900                           	callstack 0
  4901  000612                     ___fladd:
  4902                           	callstack 29
  4903  000612  5004               	movf	(___fladd@b+3)^0,w,c
  4904  000614  0B80               	andlw	128
  4905  000616  6E0D               	movwf	___fladd@signs^0,c
  4906  000618  5004               	movf	(___fladd@b+3)^0,w,c
  4907  00061A  2404               	addwf	(___fladd@b+3)^0,w,c
  4908  00061C  6E0F               	movwf	___fladd@bexp^0,c
  4909  00061E  AE03               	btfss	(___fladd@b+2)^0,7,c
  4910  000620  EF14  F003         	goto	u2411
  4911  000624  EF16  F003         	goto	u2410
  4912  000628                     u2411:
  4913  000628  EF17  F003         	goto	l2600
  4914  00062C                     u2410:
  4915  00062C  800F               	bsf	___fladd@bexp^0,0,c
  4916  00062E                     l2600:
  4917  00062E  500F               	movf	___fladd@bexp^0,w,c
  4918  000630  B4D8               	btfsc	status,2,c
  4919  000632  EF1D  F003         	goto	u2421
  4920  000636  EF1F  F003         	goto	u2420
  4921  00063A                     u2421:
  4922  00063A  EF34  F003         	goto	l2610
  4923  00063E                     u2420:
  4924  00063E  280F               	incf	___fladd@bexp^0,w,c
  4925  000640  A4D8               	btfss	status,2,c
  4926  000642  EF25  F003         	goto	u2431
  4927  000646  EF27  F003         	goto	u2430
  4928  00064A                     u2431:
  4929  00064A  EF2F  F003         	goto	l2606
  4930  00064E                     u2430:
  4931  00064E  0E00               	movlw	0
  4932  000650  6E01               	movwf	___fladd@b^0,c
  4933  000652  0E00               	movlw	0
  4934  000654  6E02               	movwf	(___fladd@b+1)^0,c
  4935  000656  0E00               	movlw	0
  4936  000658  6E03               	movwf	(___fladd@b+2)^0,c
  4937  00065A  0E00               	movlw	0
  4938  00065C  6E04               	movwf	(___fladd@b+3)^0,c
  4939  00065E                     l2606:
  4940  00065E  8E03               	bsf	(___fladd@b+2)^0,7,c
  4941  000660  0E00               	movlw	0
  4942  000662  6E04               	movwf	(___fladd@b+3)^0,c
  4943  000664  EF3C  F003         	goto	l2612
  4944  000668                     l2610:
  4945  000668  0E00               	movlw	0
  4946  00066A  6E01               	movwf	___fladd@b^0,c
  4947  00066C  0E00               	movlw	0
  4948  00066E  6E02               	movwf	(___fladd@b+1)^0,c
  4949  000670  0E00               	movlw	0
  4950  000672  6E03               	movwf	(___fladd@b+2)^0,c
  4951  000674  0E00               	movlw	0
  4952  000676  6E04               	movwf	(___fladd@b+3)^0,c
  4953  000678                     l2612:
  4954  000678  5008               	movf	(___fladd@a+3)^0,w,c
  4955  00067A  0B80               	andlw	128
  4956  00067C  6E0E               	movwf	___fladd@aexp^0,c
  4957  00067E  500D               	movf	___fladd@signs^0,w,c
  4958  000680  180E               	xorwf	___fladd@aexp^0,w,c
  4959  000682  B4D8               	btfsc	status,2,c
  4960  000684  EF46  F003         	goto	u2441
  4961  000688  EF48  F003         	goto	u2440
  4962  00068C                     u2441:
  4963  00068C  EF49  F003         	goto	l2618
  4964  000690                     u2440:
  4965  000690  8C0D               	bsf	___fladd@signs^0,6,c
  4966  000692                     l2618:
  4967  000692  5008               	movf	(___fladd@a+3)^0,w,c
  4968  000694  2408               	addwf	(___fladd@a+3)^0,w,c
  4969  000696  6E0E               	movwf	___fladd@aexp^0,c
  4970  000698  AE07               	btfss	(___fladd@a+2)^0,7,c
  4971  00069A  EF51  F003         	goto	u2451
  4972  00069E  EF53  F003         	goto	u2450
  4973  0006A2                     u2451:
  4974  0006A2  EF54  F003         	goto	l2624
  4975  0006A6                     u2450:
  4976  0006A6  800E               	bsf	___fladd@aexp^0,0,c
  4977  0006A8                     l2624:
  4978  0006A8  500E               	movf	___fladd@aexp^0,w,c
  4979  0006AA  B4D8               	btfsc	status,2,c
  4980  0006AC  EF5A  F003         	goto	u2461
  4981  0006B0  EF5C  F003         	goto	u2460
  4982  0006B4                     u2461:
  4983  0006B4  EF71  F003         	goto	l2634
  4984  0006B8                     u2460:
  4985  0006B8  280E               	incf	___fladd@aexp^0,w,c
  4986  0006BA  A4D8               	btfss	status,2,c
  4987  0006BC  EF62  F003         	goto	u2471
  4988  0006C0  EF64  F003         	goto	u2470
  4989  0006C4                     u2471:
  4990  0006C4  EF6C  F003         	goto	l2630
  4991  0006C8                     u2470:
  4992  0006C8  0E00               	movlw	0
  4993  0006CA  6E05               	movwf	___fladd@a^0,c
  4994  0006CC  0E00               	movlw	0
  4995  0006CE  6E06               	movwf	(___fladd@a+1)^0,c
  4996  0006D0  0E00               	movlw	0
  4997  0006D2  6E07               	movwf	(___fladd@a+2)^0,c
  4998  0006D4  0E00               	movlw	0
  4999  0006D6  6E08               	movwf	(___fladd@a+3)^0,c
  5000  0006D8                     l2630:
  5001  0006D8  8E07               	bsf	(___fladd@a+2)^0,7,c
  5002  0006DA  0E00               	movlw	0
  5003  0006DC  6E08               	movwf	(___fladd@a+3)^0,c
  5004  0006DE  EF79  F003         	goto	l2636
  5005  0006E2                     l2634:
  5006  0006E2  0E00               	movlw	0
  5007  0006E4  6E05               	movwf	___fladd@a^0,c
  5008  0006E6  0E00               	movlw	0
  5009  0006E8  6E06               	movwf	(___fladd@a+1)^0,c
  5010  0006EA  0E00               	movlw	0
  5011  0006EC  6E07               	movwf	(___fladd@a+2)^0,c
  5012  0006EE  0E00               	movlw	0
  5013  0006F0  6E08               	movwf	(___fladd@a+3)^0,c
  5014  0006F2                     l2636:
  5015  0006F2  500F               	movf	___fladd@bexp^0,w,c
  5016  0006F4  5C0E               	subwf	___fladd@aexp^0,w,c
  5017  0006F6  B0D8               	btfsc	status,0,c
  5018  0006F8  EF80  F003         	goto	u2481
  5019  0006FC  EF82  F003         	goto	u2480
  5020  000700                     u2481:
  5021  000700  EFA9  F003         	goto	l2672
  5022  000704                     u2480:
  5023  000704  AC0D               	btfss	___fladd@signs^0,6,c
  5024  000706  EF87  F003         	goto	u2491
  5025  00070A  EF89  F003         	goto	u2490
  5026  00070E                     u2491:
  5027  00070E  EF8B  F003         	goto	l2642
  5028  000712                     u2490:
  5029  000712  0E80               	movlw	128
  5030  000714  1A0D               	xorwf	___fladd@signs^0,f,c
  5031  000716                     l2642:
  5032  000716  C00F  F010         	movff	___fladd@bexp,___fladd@grs
  5033  00071A  C00E  F00F         	movff	___fladd@aexp,___fladd@bexp
  5034  00071E  C010  F00E         	movff	___fladd@grs,___fladd@aexp
  5035  000722  C001  F010         	movff	___fladd@b,___fladd@grs
  5036  000726  C005  F001         	movff	___fladd@a,___fladd@b
  5037  00072A  C010  F005         	movff	___fladd@grs,___fladd@a
  5038  00072E  C002  F010         	movff	___fladd@b+1,___fladd@grs
  5039  000732  C006  F002         	movff	___fladd@a+1,___fladd@b+1
  5040  000736  C010  F006         	movff	___fladd@grs,___fladd@a+1
  5041  00073A  C003  F010         	movff	___fladd@b+2,___fladd@grs
  5042  00073E  C007  F003         	movff	___fladd@a+2,___fladd@b+2
  5043  000742  C010  F007         	movff	___fladd@grs,___fladd@a+2
  5044  000746  C004  F010         	movff	___fladd@b+3,___fladd@grs
  5045  00074A  C008  F004         	movff	___fladd@a+3,___fladd@b+3
  5046  00074E  C010  F008         	movff	___fladd@grs,___fladd@a+3
  5047  000752                     l2672:
  5048  000752  0E00               	movlw	0
  5049  000754  6E10               	movwf	___fladd@grs^0,c
  5050  000756  500F               	movf	___fladd@bexp^0,w,c
  5051  000758  C00E  F009         	movff	___fladd@aexp,??___fladd
  5052  00075C  6A0A               	clrf	(??___fladd+1)^0,c
  5053  00075E  5E09               	subwf	??___fladd^0,f,c
  5054  000760  0E00               	movlw	0
  5055  000762  5A0A               	subwfb	(??___fladd+1)^0,f,c
  5056  000764  BE0A               	btfsc	(??___fladd+1)^0,7,c
  5057  000766  EFBE  F003         	goto	u2501
  5058  00076A  500A               	movf	(??___fladd+1)^0,w,c
  5059  00076C  E109               	bnz	u2500
  5060  00076E  0E1A               	movlw	26
  5061  000770  5C09               	subwf	??___fladd^0,w,c
  5062  000772  A0D8               	btfss	status,0,c
  5063  000774  EFBE  F003         	goto	u2501
  5064  000778  EFC0  F003         	goto	u2500
  5065  00077C                     u2501:
  5066  00077C  EFF7  F003         	goto	l900
  5067  000780                     u2500:
  5068  000780  5001               	movf	___fladd@b^0,w,c
  5069  000782  1002               	iorwf	(___fladd@b+1)^0,w,c
  5070  000784  1003               	iorwf	(___fladd@b+2)^0,w,c
  5071  000786  1004               	iorwf	(___fladd@b+3)^0,w,c
  5072  000788  A4D8               	btfss	status,2,c
  5073  00078A  EFC9  F003         	goto	u2511
  5074  00078E  EFCC  F003         	goto	u2510
  5075  000792                     u2511:
  5076  000792  0E01               	movlw	1
  5077  000794  EFCD  F003         	goto	u2520
  5078  000798                     u2510:
  5079  000798  0E00               	movlw	0
  5080  00079A                     u2520:
  5081  00079A  6E10               	movwf	___fladd@grs^0,c
  5082  00079C  0E00               	movlw	0
  5083  00079E  6E01               	movwf	___fladd@b^0,c
  5084  0007A0  0E00               	movlw	0
  5085  0007A2  6E02               	movwf	(___fladd@b+1)^0,c
  5086  0007A4  0E00               	movlw	0
  5087  0007A6  6E03               	movwf	(___fladd@b+2)^0,c
  5088  0007A8  0E00               	movlw	0
  5089  0007AA  6E04               	movwf	(___fladd@b+3)^0,c
  5090  0007AC  C00E  F00F         	movff	___fladd@aexp,___fladd@bexp
  5091  0007B0  EF00  F004         	goto	l899
  5092  0007B4                     l901:
  5093  0007B4  A010               	btfss	___fladd@grs^0,0,c
  5094  0007B6  EFDF  F003         	goto	u2531
  5095  0007BA  EFE1  F003         	goto	u2530
  5096  0007BE                     u2531:
  5097  0007BE  EFE7  F003         	goto	l2684
  5098  0007C2                     u2530:
  5099  0007C2  90D8               	bcf	status,0,c
  5100  0007C4  3010               	rrcf	___fladd@grs^0,w,c
  5101  0007C6  0901               	iorlw	1
  5102  0007C8  6E10               	movwf	___fladd@grs^0,c
  5103  0007CA  EFE9  F003         	goto	l2686
  5104  0007CE                     l2684:
  5105  0007CE  90D8               	bcf	status,0,c
  5106  0007D0  3210               	rrcf	___fladd@grs^0,f,c
  5107  0007D2                     l2686:
  5108  0007D2  A001               	btfss	___fladd@b^0,0,c
  5109  0007D4  EFEE  F003         	goto	u2541
  5110  0007D8  EFF0  F003         	goto	u2540
  5111  0007DC                     u2541:
  5112  0007DC  EFF1  F003         	goto	l2690
  5113  0007E0                     u2540:
  5114  0007E0  8E10               	bsf	___fladd@grs^0,7,c
  5115  0007E2                     l2690:
  5116  0007E2  3404               	rlcf	(___fladd@b+3)^0,w,c
  5117  0007E4  3204               	rrcf	(___fladd@b+3)^0,f,c
  5118  0007E6  3203               	rrcf	(___fladd@b+2)^0,f,c
  5119  0007E8  3202               	rrcf	(___fladd@b+1)^0,f,c
  5120  0007EA  3201               	rrcf	___fladd@b^0,f,c
  5121  0007EC  2A0F               	incf	___fladd@bexp^0,f,c
  5122  0007EE                     l900:
  5123  0007EE  500E               	movf	___fladd@aexp^0,w,c
  5124  0007F0  5C0F               	subwf	___fladd@bexp^0,w,c
  5125  0007F2  A0D8               	btfss	status,0,c
  5126  0007F4  EFFE  F003         	goto	u2551
  5127  0007F8  EF00  F004         	goto	u2550
  5128  0007FC                     u2551:
  5129  0007FC  EFDA  F003         	goto	l901
  5130  000800                     u2550:
  5131  000800                     l899:
  5132  000800  BC0D               	btfsc	___fladd@signs^0,6,c
  5133  000802  EF05  F004         	goto	u2561
  5134  000806  EF07  F004         	goto	u2560
  5135  00080A                     u2561:
  5136  00080A  EF47  F004         	goto	l2718
  5137  00080E                     u2560:
  5138  00080E  500F               	movf	___fladd@bexp^0,w,c
  5139  000810  A4D8               	btfss	status,2,c
  5140  000812  EF0D  F004         	goto	u2571
  5141  000816  EF0F  F004         	goto	u2570
  5142  00081A                     u2571:
  5143  00081A  EF19  F004         	goto	l2700
  5144  00081E                     u2570:
  5145  00081E  0E00               	movlw	0
  5146  000820  6E01               	movwf	?___fladd^0,c
  5147  000822  0E00               	movlw	0
  5148  000824  6E02               	movwf	(?___fladd+1)^0,c
  5149  000826  0E00               	movlw	0
  5150  000828  6E03               	movwf	(?___fladd+2)^0,c
  5151  00082A  0E00               	movlw	0
  5152  00082C  6E04               	movwf	(?___fladd+3)^0,c
  5153  00082E  EF68  F005         	goto	l908
  5154  000832                     l2700:
  5155  000832  5005               	movf	___fladd@a^0,w,c
  5156  000834  2601               	addwf	___fladd@b^0,f,c
  5157  000836  5006               	movf	(___fladd@a+1)^0,w,c
  5158  000838  2202               	addwfc	(___fladd@b+1)^0,f,c
  5159  00083A  5007               	movf	(___fladd@a+2)^0,w,c
  5160  00083C  2203               	addwfc	(___fladd@b+2)^0,f,c
  5161  00083E  5008               	movf	(___fladd@a+3)^0,w,c
  5162  000840  2204               	addwfc	(___fladd@b+3)^0,f,c
  5163  000842  A004               	btfss	(___fladd@b+3)^0,0,c
  5164  000844  EF26  F004         	goto	u2581
  5165  000848  EF28  F004         	goto	u2580
  5166  00084C                     u2581:
  5167  00084C  EFD4  F004         	goto	l2754
  5168  000850                     u2580:
  5169  000850  A010               	btfss	___fladd@grs^0,0,c
  5170  000852  EF2D  F004         	goto	u2591
  5171  000856  EF2F  F004         	goto	u2590
  5172  00085A                     u2591:
  5173  00085A  EF35  F004         	goto	l2708
  5174  00085E                     u2590:
  5175  00085E  90D8               	bcf	status,0,c
  5176  000860  3010               	rrcf	___fladd@grs^0,w,c
  5177  000862  0901               	iorlw	1
  5178  000864  6E10               	movwf	___fladd@grs^0,c
  5179  000866  EF37  F004         	goto	l2710
  5180  00086A                     l2708:
  5181  00086A  90D8               	bcf	status,0,c
  5182  00086C  3210               	rrcf	___fladd@grs^0,f,c
  5183  00086E                     l2710:
  5184  00086E  A001               	btfss	___fladd@b^0,0,c
  5185  000870  EF3C  F004         	goto	u2601
  5186  000874  EF3E  F004         	goto	u2600
  5187  000878                     u2601:
  5188  000878  EF3F  F004         	goto	l2714
  5189  00087C                     u2600:
  5190  00087C  8E10               	bsf	___fladd@grs^0,7,c
  5191  00087E                     l2714:
  5192  00087E  3404               	rlcf	(___fladd@b+3)^0,w,c
  5193  000880  3204               	rrcf	(___fladd@b+3)^0,f,c
  5194  000882  3203               	rrcf	(___fladd@b+2)^0,f,c
  5195  000884  3202               	rrcf	(___fladd@b+1)^0,f,c
  5196  000886  3201               	rrcf	___fladd@b^0,f,c
  5197  000888  2A0F               	incf	___fladd@bexp^0,f,c
  5198  00088A  EFD4  F004         	goto	l2754
  5199  00088E                     l2718:
  5200  00088E  5005               	movf	___fladd@a^0,w,c
  5201  000890  5C01               	subwf	___fladd@b^0,w,c
  5202  000892  5006               	movf	(___fladd@a+1)^0,w,c
  5203  000894  5802               	subwfb	(___fladd@b+1)^0,w,c
  5204  000896  5007               	movf	(___fladd@a+2)^0,w,c
  5205  000898  5803               	subwfb	(___fladd@b+2)^0,w,c
  5206  00089A  5004               	movf	(___fladd@b+3)^0,w,c
  5207  00089C  0A80               	xorlw	128
  5208  00089E  6E09               	movwf	??___fladd^0,c
  5209  0008A0  5008               	movf	(___fladd@a+3)^0,w,c
  5210  0008A2  0A80               	xorlw	128
  5211  0008A4  5809               	subwfb	??___fladd^0,w,c
  5212  0008A6  B0D8               	btfsc	status,0,c
  5213  0008A8  EF58  F004         	goto	u2611
  5214  0008AC  EF5A  F004         	goto	u2610
  5215  0008B0                     u2611:
  5216  0008B0  EF85  F004         	goto	l2728
  5217  0008B4                     u2610:
  5218  0008B4  5001               	movf	___fladd@b^0,w,c
  5219  0008B6  5C05               	subwf	___fladd@a^0,w,c
  5220  0008B8  6E09               	movwf	??___fladd^0,c
  5221  0008BA  5002               	movf	(___fladd@b+1)^0,w,c
  5222  0008BC  5806               	subwfb	(___fladd@a+1)^0,w,c
  5223  0008BE  6E0A               	movwf	(??___fladd+1)^0,c
  5224  0008C0  5003               	movf	(___fladd@b+2)^0,w,c
  5225  0008C2  5807               	subwfb	(___fladd@a+2)^0,w,c
  5226  0008C4  6E0B               	movwf	(??___fladd+2)^0,c
  5227  0008C6  5004               	movf	(___fladd@b+3)^0,w,c
  5228  0008C8  5808               	subwfb	(___fladd@a+3)^0,w,c
  5229  0008CA  6E0C               	movwf	(??___fladd+3)^0,c
  5230  0008CC  0EFF               	movlw	255
  5231  0008CE  2409               	addwf	??___fladd^0,w,c
  5232  0008D0  6E01               	movwf	___fladd@b^0,c
  5233  0008D2  0EFF               	movlw	255
  5234  0008D4  200A               	addwfc	(??___fladd+1)^0,w,c
  5235  0008D6  6E02               	movwf	(___fladd@b+1)^0,c
  5236  0008D8  0EFF               	movlw	255
  5237  0008DA  200B               	addwfc	(??___fladd+2)^0,w,c
  5238  0008DC  6E03               	movwf	(___fladd@b+2)^0,c
  5239  0008DE  0EFF               	movlw	255
  5240  0008E0  200C               	addwfc	(??___fladd+3)^0,w,c
  5241  0008E2  6E04               	movwf	(___fladd@b+3)^0,c
  5242  0008E4  0E80               	movlw	128
  5243  0008E6  1A0D               	xorwf	___fladd@signs^0,f,c
  5244  0008E8  6C10               	negf	___fladd@grs^0,c
  5245  0008EA  5010               	movf	___fladd@grs^0,w,c
  5246  0008EC  A4D8               	btfss	status,2,c
  5247  0008EE  EF7B  F004         	goto	u2621
  5248  0008F2  EF7D  F004         	goto	u2620
  5249  0008F6                     u2621:
  5250  0008F6  EF8D  F004         	goto	l916
  5251  0008FA                     u2620:
  5252  0008FA  0E01               	movlw	1
  5253  0008FC  2601               	addwf	___fladd@b^0,f,c
  5254  0008FE  0E00               	movlw	0
  5255  000900  2202               	addwfc	(___fladd@b+1)^0,f,c
  5256  000902  2203               	addwfc	(___fladd@b+2)^0,f,c
  5257  000904  2204               	addwfc	(___fladd@b+3)^0,f,c
  5258  000906  EF8D  F004         	goto	l916
  5259  00090A                     l2728:
  5260  00090A  5005               	movf	___fladd@a^0,w,c
  5261  00090C  5E01               	subwf	___fladd@b^0,f,c
  5262  00090E  5006               	movf	(___fladd@a+1)^0,w,c
  5263  000910  5A02               	subwfb	(___fladd@b+1)^0,f,c
  5264  000912  5007               	movf	(___fladd@a+2)^0,w,c
  5265  000914  5A03               	subwfb	(___fladd@b+2)^0,f,c
  5266  000916  5008               	movf	(___fladd@a+3)^0,w,c
  5267  000918  5A04               	subwfb	(___fladd@b+3)^0,f,c
  5268  00091A                     l916:
  5269  00091A  5001               	movf	___fladd@b^0,w,c
  5270  00091C  1002               	iorwf	(___fladd@b+1)^0,w,c
  5271  00091E  1003               	iorwf	(___fladd@b+2)^0,w,c
  5272  000920  1004               	iorwf	(___fladd@b+3)^0,w,c
  5273  000922  A4D8               	btfss	status,2,c
  5274  000924  EF96  F004         	goto	u2631
  5275  000928  EF98  F004         	goto	u2630
  5276  00092C                     u2631:
  5277  00092C  EFCD  F004         	goto	l2752
  5278  000930                     u2630:
  5279  000930  5010               	movf	___fladd@grs^0,w,c
  5280  000932  A4D8               	btfss	status,2,c
  5281  000934  EF9E  F004         	goto	u2641
  5282  000938  EFA0  F004         	goto	u2640
  5283  00093C                     u2641:
  5284  00093C  EFCD  F004         	goto	l2752
  5285  000940                     u2640:
  5286  000940  0E00               	movlw	0
  5287  000942  6E01               	movwf	?___fladd^0,c
  5288  000944  0E00               	movlw	0
  5289  000946  6E02               	movwf	(?___fladd+1)^0,c
  5290  000948  0E00               	movlw	0
  5291  00094A  6E03               	movwf	(?___fladd+2)^0,c
  5292  00094C  0E00               	movlw	0
  5293  00094E  6E04               	movwf	(?___fladd+3)^0,c
  5294  000950  EF68  F005         	goto	l908
  5295  000954                     l2736:
  5296  000954  90D8               	bcf	status,0,c
  5297  000956  3601               	rlcf	___fladd@b^0,f,c
  5298  000958  3602               	rlcf	(___fladd@b+1)^0,f,c
  5299  00095A  3603               	rlcf	(___fladd@b+2)^0,f,c
  5300  00095C  3604               	rlcf	(___fladd@b+3)^0,f,c
  5301  00095E  AE10               	btfss	___fladd@grs^0,7,c
  5302  000960  EFB4  F004         	goto	u2651
  5303  000964  EFB6  F004         	goto	u2650
  5304  000968                     u2651:
  5305  000968  EFB7  F004         	goto	l2742
  5306  00096C                     u2650:
  5307  00096C  8001               	bsf	___fladd@b^0,0,c
  5308  00096E                     l2742:
  5309  00096E  A010               	btfss	___fladd@grs^0,0,c
  5310  000970  EFBC  F004         	goto	u2661
  5311  000974  EFBE  F004         	goto	u2660
  5312  000978                     u2661:
  5313  000978  EFC2  F004         	goto	l2746
  5314  00097C                     u2660:
  5315  00097C  80D8               	bsf	status,0,c
  5316  00097E  3610               	rlcf	___fladd@grs^0,f,c
  5317  000980  EFC4  F004         	goto	l2748
  5318  000984                     l2746:
  5319  000984  90D8               	bcf	status,0,c
  5320  000986  3610               	rlcf	___fladd@grs^0,f,c
  5321  000988                     l2748:
  5322  000988  500F               	movf	___fladd@bexp^0,w,c
  5323  00098A  B4D8               	btfsc	status,2,c
  5324  00098C  EFCA  F004         	goto	u2671
  5325  000990  EFCC  F004         	goto	u2670
  5326  000994                     u2671:
  5327  000994  EFCD  F004         	goto	l2752
  5328  000998                     u2670:
  5329  000998  060F               	decf	___fladd@bexp^0,f,c
  5330  00099A                     l2752:
  5331  00099A  AE03               	btfss	(___fladd@b+2)^0,7,c
  5332  00099C  EFD2  F004         	goto	u2681
  5333  0009A0  EFD4  F004         	goto	u2680
  5334  0009A4                     u2681:
  5335  0009A4  EFAA  F004         	goto	l2736
  5336  0009A8                     u2680:
  5337  0009A8                     l2754:
  5338  0009A8  0E00               	movlw	0
  5339  0009AA  6E0E               	movwf	___fladd@aexp^0,c
  5340  0009AC  AE10               	btfss	___fladd@grs^0,7,c
  5341  0009AE  EFDB  F004         	goto	u2691
  5342  0009B2  EFDD  F004         	goto	u2690
  5343  0009B6                     u2691:
  5344  0009B6  EFF5  F004         	goto	l925
  5345  0009BA                     u2690:
  5346  0009BA  C010  F009         	movff	___fladd@grs,??___fladd
  5347  0009BE  0E7F               	movlw	127
  5348  0009C0  1609               	andwf	??___fladd^0,f,c
  5349  0009C2  B4D8               	btfsc	status,2,c
  5350  0009C4  EFE6  F004         	goto	u2701
  5351  0009C8  EFE8  F004         	goto	u2700
  5352  0009CC                     u2701:
  5353  0009CC  EFEC  F004         	goto	l926
  5354  0009D0                     u2700:
  5355  0009D0                     l2760:
  5356  0009D0  0E01               	movlw	1
  5357  0009D2  6E0E               	movwf	___fladd@aexp^0,c
  5358  0009D4  EFF5  F004         	goto	l925
  5359  0009D8                     l926:
  5360  0009D8  A001               	btfss	___fladd@b^0,0,c
  5361  0009DA  EFF1  F004         	goto	u2711
  5362  0009DE  EFF3  F004         	goto	u2710
  5363  0009E2                     u2711:
  5364  0009E2  EFF5  F004         	goto	l925
  5365  0009E6                     u2710:
  5366  0009E6  EFE8  F004         	goto	l2760
  5367  0009EA                     l925:
  5368  0009EA  500E               	movf	___fladd@aexp^0,w,c
  5369  0009EC  B4D8               	btfsc	status,2,c
  5370  0009EE  EFFB  F004         	goto	u2721
  5371  0009F2  EFFD  F004         	goto	u2720
  5372  0009F6                     u2721:
  5373  0009F6  EF28  F005         	goto	l2772
  5374  0009FA                     u2720:
  5375  0009FA  0E01               	movlw	1
  5376  0009FC  2601               	addwf	___fladd@b^0,f,c
  5377  0009FE  0E00               	movlw	0
  5378  000A00  2202               	addwfc	(___fladd@b+1)^0,f,c
  5379  000A02  2203               	addwfc	(___fladd@b+2)^0,f,c
  5380  000A04  2204               	addwfc	(___fladd@b+3)^0,f,c
  5381  000A06  A004               	btfss	(___fladd@b+3)^0,0,c
  5382  000A08  EF08  F005         	goto	u2731
  5383  000A0C  EF0A  F005         	goto	u2730
  5384  000A10                     u2731:
  5385  000A10  EF28  F005         	goto	l2772
  5386  000A14                     u2730:
  5387  000A14  C001  F009         	movff	___fladd@b,??___fladd
  5388  000A18  C002  F00A         	movff	___fladd@b+1,??___fladd+1
  5389  000A1C  C003  F00B         	movff	___fladd@b+2,??___fladd+2
  5390  000A20  C004  F00C         	movff	___fladd@b+3,??___fladd+3
  5391  000A24  340C               	rlcf	(??___fladd+3)^0,w,c
  5392  000A26  320C               	rrcf	(??___fladd+3)^0,f,c
  5393  000A28  320B               	rrcf	(??___fladd+2)^0,f,c
  5394  000A2A  320A               	rrcf	(??___fladd+1)^0,f,c
  5395  000A2C  3209               	rrcf	??___fladd^0,f,c
  5396  000A2E  C009  F001         	movff	??___fladd,___fladd@b
  5397  000A32  C00A  F002         	movff	??___fladd+1,___fladd@b+1
  5398  000A36  C00B  F003         	movff	??___fladd+2,___fladd@b+2
  5399  000A3A  C00C  F004         	movff	??___fladd+3,___fladd@b+3
  5400  000A3E  280F               	incf	___fladd@bexp^0,w,c
  5401  000A40  B4D8               	btfsc	status,2,c
  5402  000A42  EF25  F005         	goto	u2741
  5403  000A46  EF27  F005         	goto	u2740
  5404  000A4A                     u2741:
  5405  000A4A  EF28  F005         	goto	l2772
  5406  000A4E                     u2740:
  5407  000A4E  2A0F               	incf	___fladd@bexp^0,f,c
  5408  000A50                     l2772:
  5409  000A50  280F               	incf	___fladd@bexp^0,w,c
  5410  000A52  B4D8               	btfsc	status,2,c
  5411  000A54  EF2E  F005         	goto	u2751
  5412  000A58  EF30  F005         	goto	u2750
  5413  000A5C                     u2751:
  5414  000A5C  EF38  F005         	goto	l2776
  5415  000A60                     u2750:
  5416  000A60  500F               	movf	___fladd@bexp^0,w,c
  5417  000A62  A4D8               	btfss	status,2,c
  5418  000A64  EF36  F005         	goto	u2761
  5419  000A68  EF38  F005         	goto	u2760
  5420  000A6C                     u2761:
  5421  000A6C  EF4A  F005         	goto	l2780
  5422  000A70                     u2760:
  5423  000A70                     l2776:
  5424  000A70  0E00               	movlw	0
  5425  000A72  6E01               	movwf	___fladd@b^0,c
  5426  000A74  0E00               	movlw	0
  5427  000A76  6E02               	movwf	(___fladd@b+1)^0,c
  5428  000A78  0E00               	movlw	0
  5429  000A7A  6E03               	movwf	(___fladd@b+2)^0,c
  5430  000A7C  0E00               	movlw	0
  5431  000A7E  6E04               	movwf	(___fladd@b+3)^0,c
  5432  000A80  500F               	movf	___fladd@bexp^0,w,c
  5433  000A82  A4D8               	btfss	status,2,c
  5434  000A84  EF46  F005         	goto	u2771
  5435  000A88  EF48  F005         	goto	u2770
  5436  000A8C                     u2771:
  5437  000A8C  EF4A  F005         	goto	l2780
  5438  000A90                     u2770:
  5439  000A90  0E00               	movlw	0
  5440  000A92  6E0D               	movwf	___fladd@signs^0,c
  5441  000A94                     l2780:
  5442  000A94  A00F               	btfss	___fladd@bexp^0,0,c
  5443  000A96  EF4F  F005         	goto	u2781
  5444  000A9A  EF51  F005         	goto	u2780
  5445  000A9E                     u2781:
  5446  000A9E  EF54  F005         	goto	l2784
  5447  000AA2                     u2780:
  5448  000AA2  8E03               	bsf	(___fladd@b+2)^0,7,c
  5449  000AA4  EF55  F005         	goto	l2786
  5450  000AA8                     l2784:
  5451  000AA8  9E03               	bcf	(___fladd@b+2)^0,7,c
  5452  000AAA                     l2786:
  5453  000AAA  90D8               	bcf	status,0,c
  5454  000AAC  300F               	rrcf	___fladd@bexp^0,w,c
  5455  000AAE  6E04               	movwf	(___fladd@b+3)^0,c
  5456  000AB0  AE0D               	btfss	___fladd@signs^0,7,c
  5457  000AB2  EF5D  F005         	goto	u2791
  5458  000AB6  EF5F  F005         	goto	u2790
  5459  000ABA                     u2791:
  5460  000ABA  EF60  F005         	goto	l2792
  5461  000ABE                     u2790:
  5462  000ABE  8E04               	bsf	(___fladd@b+3)^0,7,c
  5463  000AC0                     l2792:
  5464  000AC0  C001  F001         	movff	___fladd@b,?___fladd
  5465  000AC4  C002  F002         	movff	___fladd@b+1,?___fladd+1
  5466  000AC8  C003  F003         	movff	___fladd@b+2,?___fladd+2
  5467  000ACC  C004  F004         	movff	___fladd@b+3,?___fladd+3
  5468  000AD0                     l908:
  5469  000AD0  0012               	return		;funcret
  5470  000AD2                     __end_of___fladd:
  5471                           	callstack 0
  5472                           
  5473 ;; *************** function ___awmod *****************
  5474 ;; Defined at:
  5475 ;;		line 7 in file "C:\Program Files\Microchip\xc8\v2.32\pic\sources\c99\common\awmod.c"
  5476 ;; Parameters:    Size  Location     Type
  5477 ;;  dividend        2    0[COMRAM] int 
  5478 ;;  divisor         2    2[COMRAM] int 
  5479 ;; Auto vars:     Size  Location     Type
  5480 ;;  sign            1    5[COMRAM] unsigned char 
  5481 ;;  counter         1    4[COMRAM] unsigned char 
  5482 ;; Return value:  Size  Location     Type
  5483 ;;                  2    0[COMRAM] int 
  5484 ;; Registers used:
  5485 ;;		wreg, status,2, status,0
  5486 ;; Tracked objects:
  5487 ;;		On entry : 0/0
  5488 ;;		On exit  : 0/0
  5489 ;;		Unchanged: 0/0
  5490 ;; Data sizes:     COMRAM   BANK0   BANK1   BANK2   BANK3   BANK4   BANK5
  5491 ;;      Params:         4       0       0       0       0       0       0
  5492 ;;      Locals:         2       0       0       0       0       0       0
  5493 ;;      Temps:          0       0       0       0       0       0       0
  5494 ;;      Totals:         6       0       0       0       0       0       0
  5495 ;;Total ram usage:        6 bytes
  5496 ;; Hardware stack levels used: 1
  5497 ;; This function calls:
  5498 ;;		Nothing
  5499 ;; This function is called by:
  5500 ;;		_cronometro
  5501 ;; This function uses a non-reentrant model
  5502 ;;
  5503                           
  5504                           	psect	text32
  5505  001A4A                     __ptext32:
  5506                           	callstack 0
  5507  001A4A                     ___awmod:
  5508                           	callstack 29
  5509  001A4A  0E00               	movlw	0
  5510  001A4C  6E06               	movwf	___awmod@sign^0,c
  5511  001A4E  BE02               	btfsc	(___awmod@dividend+1)^0,7,c
  5512  001A50  EF2E  F00D         	goto	u2860
  5513  001A54  EF2C  F00D         	goto	u2861
  5514  001A58                     u2861:
  5515  001A58  EF34  F00D         	goto	l2848
  5516  001A5C                     u2860:
  5517  001A5C  6C01               	negf	___awmod@dividend^0,c
  5518  001A5E  1E02               	comf	(___awmod@dividend+1)^0,f,c
  5519  001A60  B0D8               	btfsc	status,0,c
  5520  001A62  2A02               	incf	(___awmod@dividend+1)^0,f,c
  5521  001A64  0E01               	movlw	1
  5522  001A66  6E06               	movwf	___awmod@sign^0,c
  5523  001A68                     l2848:
  5524  001A68  BE04               	btfsc	(___awmod@divisor+1)^0,7,c
  5525  001A6A  EF3B  F00D         	goto	u2870
  5526  001A6E  EF39  F00D         	goto	u2871
  5527  001A72                     u2871:
  5528  001A72  EF3F  F00D         	goto	l2852
  5529  001A76                     u2870:
  5530  001A76  6C03               	negf	___awmod@divisor^0,c
  5531  001A78  1E04               	comf	(___awmod@divisor+1)^0,f,c
  5532  001A7A  B0D8               	btfsc	status,0,c
  5533  001A7C  2A04               	incf	(___awmod@divisor+1)^0,f,c
  5534  001A7E                     l2852:
  5535  001A7E  5003               	movf	___awmod@divisor^0,w,c
  5536  001A80  1004               	iorwf	(___awmod@divisor+1)^0,w,c
  5537  001A82  B4D8               	btfsc	status,2,c
  5538  001A84  EF46  F00D         	goto	u2881
  5539  001A88  EF48  F00D         	goto	u2880
  5540  001A8C                     u2881:
  5541  001A8C  EF6C  F00D         	goto	l2868
  5542  001A90                     u2880:
  5543  001A90  0E01               	movlw	1
  5544  001A92  6E05               	movwf	___awmod@counter^0,c
  5545  001A94  EF50  F00D         	goto	l2858
  5546  001A98                     l2856:
  5547  001A98  90D8               	bcf	status,0,c
  5548  001A9A  3603               	rlcf	___awmod@divisor^0,f,c
  5549  001A9C  3604               	rlcf	(___awmod@divisor+1)^0,f,c
  5550  001A9E  2A05               	incf	___awmod@counter^0,f,c
  5551  001AA0                     l2858:
  5552  001AA0  AE04               	btfss	(___awmod@divisor+1)^0,7,c
  5553  001AA2  EF55  F00D         	goto	u2891
  5554  001AA6  EF57  F00D         	goto	u2890
  5555  001AAA                     u2891:
  5556  001AAA  EF4C  F00D         	goto	l2856
  5557  001AAE                     u2890:
  5558  001AAE                     l2860:
  5559  001AAE  5003               	movf	___awmod@divisor^0,w,c
  5560  001AB0  5C01               	subwf	___awmod@dividend^0,w,c
  5561  001AB2  5004               	movf	(___awmod@divisor+1)^0,w,c
  5562  001AB4  5802               	subwfb	(___awmod@dividend+1)^0,w,c
  5563  001AB6  A0D8               	btfss	status,0,c
  5564  001AB8  EF60  F00D         	goto	u2901
  5565  001ABC  EF62  F00D         	goto	u2900
  5566  001AC0                     u2901:
  5567  001AC0  EF66  F00D         	goto	l2864
  5568  001AC4                     u2900:
  5569  001AC4  5003               	movf	___awmod@divisor^0,w,c
  5570  001AC6  5E01               	subwf	___awmod@dividend^0,f,c
  5571  001AC8  5004               	movf	(___awmod@divisor+1)^0,w,c
  5572  001ACA  5A02               	subwfb	(___awmod@dividend+1)^0,f,c
  5573  001ACC                     l2864:
  5574  001ACC  90D8               	bcf	status,0,c
  5575  001ACE  3204               	rrcf	(___awmod@divisor+1)^0,f,c
  5576  001AD0  3203               	rrcf	___awmod@divisor^0,f,c
  5577  001AD2  2E05               	decfsz	___awmod@counter^0,f,c
  5578  001AD4  EF57  F00D         	goto	l2860
  5579  001AD8                     l2868:
  5580  001AD8  5006               	movf	___awmod@sign^0,w,c
  5581  001ADA  B4D8               	btfsc	status,2,c
  5582  001ADC  EF72  F00D         	goto	u2911
  5583  001AE0  EF74  F00D         	goto	u2910
  5584  001AE4                     u2911:
  5585  001AE4  EF78  F00D         	goto	l2872
  5586  001AE8                     u2910:
  5587  001AE8  6C01               	negf	___awmod@dividend^0,c
  5588  001AEA  1E02               	comf	(___awmod@dividend+1)^0,f,c
  5589  001AEC  B0D8               	btfsc	status,0,c
  5590  001AEE  2A02               	incf	(___awmod@dividend+1)^0,f,c
  5591  001AF0                     l2872:
  5592  001AF0  C001  F001         	movff	___awmod@dividend,?___awmod
  5593  001AF4  C002  F002         	movff	___awmod@dividend+1,?___awmod+1
  5594  001AF8  0012               	return		;funcret
  5595  001AFA                     __end_of___awmod:
  5596                           	callstack 0
  5597                           
  5598 ;; *************** function ___awdiv *****************
  5599 ;; Defined at:
  5600 ;;		line 7 in file "C:\Program Files\Microchip\xc8\v2.32\pic\sources\c99\common\awdiv.c"
  5601 ;; Parameters:    Size  Location     Type
  5602 ;;  dividend        2    0[COMRAM] int 
  5603 ;;  divisor         2    2[COMRAM] int 
  5604 ;; Auto vars:     Size  Location     Type
  5605 ;;  quotient        2    6[COMRAM] int 
  5606 ;;  sign            1    5[COMRAM] unsigned char 
  5607 ;;  counter         1    4[COMRAM] unsigned char 
  5608 ;; Return value:  Size  Location     Type
  5609 ;;                  2    0[COMRAM] int 
  5610 ;; Registers used:
  5611 ;;		wreg, status,2, status,0
  5612 ;; Tracked objects:
  5613 ;;		On entry : 0/0
  5614 ;;		On exit  : 0/0
  5615 ;;		Unchanged: 0/0
  5616 ;; Data sizes:     COMRAM   BANK0   BANK1   BANK2   BANK3   BANK4   BANK5
  5617 ;;      Params:         4       0       0       0       0       0       0
  5618 ;;      Locals:         4       0       0       0       0       0       0
  5619 ;;      Temps:          0       0       0       0       0       0       0
  5620 ;;      Totals:         8       0       0       0       0       0       0
  5621 ;;Total ram usage:        8 bytes
  5622 ;; Hardware stack levels used: 1
  5623 ;; This function calls:
  5624 ;;		Nothing
  5625 ;; This function is called by:
  5626 ;;		_cronometro
  5627 ;; This function uses a non-reentrant model
  5628 ;;
  5629                           
  5630                           	psect	text33
  5631  0018D6                     __ptext33:
  5632                           	callstack 0
  5633  0018D6                     ___awdiv:
  5634                           	callstack 29
  5635  0018D6  0E00               	movlw	0
  5636  0018D8  6E06               	movwf	___awdiv@sign^0,c
  5637  0018DA  BE04               	btfsc	(___awdiv@divisor+1)^0,7,c
  5638  0018DC  EF74  F00C         	goto	u2800
  5639  0018E0  EF72  F00C         	goto	u2801
  5640  0018E4                     u2801:
  5641  0018E4  EF7A  F00C         	goto	l2804
  5642  0018E8                     u2800:
  5643  0018E8  6C03               	negf	___awdiv@divisor^0,c
  5644  0018EA  1E04               	comf	(___awdiv@divisor+1)^0,f,c
  5645  0018EC  B0D8               	btfsc	status,0,c
  5646  0018EE  2A04               	incf	(___awdiv@divisor+1)^0,f,c
  5647  0018F0  0E01               	movlw	1
  5648  0018F2  6E06               	movwf	___awdiv@sign^0,c
  5649  0018F4                     l2804:
  5650  0018F4  BE02               	btfsc	(___awdiv@dividend+1)^0,7,c
  5651  0018F6  EF81  F00C         	goto	u2810
  5652  0018FA  EF7F  F00C         	goto	u2811
  5653  0018FE                     u2811:
  5654  0018FE  EF87  F00C         	goto	l2810
  5655  001902                     u2810:
  5656  001902  6C01               	negf	___awdiv@dividend^0,c
  5657  001904  1E02               	comf	(___awdiv@dividend+1)^0,f,c
  5658  001906  B0D8               	btfsc	status,0,c
  5659  001908  2A02               	incf	(___awdiv@dividend+1)^0,f,c
  5660  00190A  0E01               	movlw	1
  5661  00190C  1A06               	xorwf	___awdiv@sign^0,f,c
  5662  00190E                     l2810:
  5663  00190E  0E00               	movlw	0
  5664  001910  6E08               	movwf	(___awdiv@quotient+1)^0,c
  5665  001912  0E00               	movlw	0
  5666  001914  6E07               	movwf	___awdiv@quotient^0,c
  5667  001916  5003               	movf	___awdiv@divisor^0,w,c
  5668  001918  1004               	iorwf	(___awdiv@divisor+1)^0,w,c
  5669  00191A  B4D8               	btfsc	status,2,c
  5670  00191C  EF92  F00C         	goto	u2821
  5671  001920  EF94  F00C         	goto	u2820
  5672  001924                     u2821:
  5673  001924  EFBC  F00C         	goto	l2832
  5674  001928                     u2820:
  5675  001928  0E01               	movlw	1
  5676  00192A  6E05               	movwf	___awdiv@counter^0,c
  5677  00192C  EF9C  F00C         	goto	l2818
  5678  001930                     l2816:
  5679  001930  90D8               	bcf	status,0,c
  5680  001932  3603               	rlcf	___awdiv@divisor^0,f,c
  5681  001934  3604               	rlcf	(___awdiv@divisor+1)^0,f,c
  5682  001936  2A05               	incf	___awdiv@counter^0,f,c
  5683  001938                     l2818:
  5684  001938  AE04               	btfss	(___awdiv@divisor+1)^0,7,c
  5685  00193A  EFA1  F00C         	goto	u2831
  5686  00193E  EFA3  F00C         	goto	u2830
  5687  001942                     u2831:
  5688  001942  EF98  F00C         	goto	l2816
  5689  001946                     u2830:
  5690  001946                     l2820:
  5691  001946  90D8               	bcf	status,0,c
  5692  001948  3607               	rlcf	___awdiv@quotient^0,f,c
  5693  00194A  3608               	rlcf	(___awdiv@quotient+1)^0,f,c
  5694  00194C  5003               	movf	___awdiv@divisor^0,w,c
  5695  00194E  5C01               	subwf	___awdiv@dividend^0,w,c
  5696  001950  5004               	movf	(___awdiv@divisor+1)^0,w,c
  5697  001952  5802               	subwfb	(___awdiv@dividend+1)^0,w,c
  5698  001954  A0D8               	btfss	status,0,c
  5699  001956  EFAF  F00C         	goto	u2841
  5700  00195A  EFB1  F00C         	goto	u2840
  5701  00195E                     u2841:
  5702  00195E  EFB6  F00C         	goto	l2828
  5703  001962                     u2840:
  5704  001962  5003               	movf	___awdiv@divisor^0,w,c
  5705  001964  5E01               	subwf	___awdiv@dividend^0,f,c
  5706  001966  5004               	movf	(___awdiv@divisor+1)^0,w,c
  5707  001968  5A02               	subwfb	(___awdiv@dividend+1)^0,f,c
  5708  00196A  8007               	bsf	___awdiv@quotient^0,0,c
  5709  00196C                     l2828:
  5710  00196C  90D8               	bcf	status,0,c
  5711  00196E  3204               	rrcf	(___awdiv@divisor+1)^0,f,c
  5712  001970  3203               	rrcf	___awdiv@divisor^0,f,c
  5713  001972  2E05               	decfsz	___awdiv@counter^0,f,c
  5714  001974  EFA3  F00C         	goto	l2820
  5715  001978                     l2832:
  5716  001978  5006               	movf	___awdiv@sign^0,w,c
  5717  00197A  B4D8               	btfsc	status,2,c
  5718  00197C  EFC2  F00C         	goto	u2851
  5719  001980  EFC4  F00C         	goto	u2850
  5720  001984                     u2851:
  5721  001984  EFC8  F00C         	goto	l2836
  5722  001988                     u2850:
  5723  001988  6C07               	negf	___awdiv@quotient^0,c
  5724  00198A  1E08               	comf	(___awdiv@quotient+1)^0,f,c
  5725  00198C  B0D8               	btfsc	status,0,c
  5726  00198E  2A08               	incf	(___awdiv@quotient+1)^0,f,c
  5727  001990                     l2836:
  5728  001990  C007  F001         	movff	___awdiv@quotient,?___awdiv
  5729  001994  C008  F002         	movff	___awdiv@quotient+1,?___awdiv+1
  5730  001998  0012               	return		;funcret
  5731  00199A                     __end_of___awdiv:
  5732                           	callstack 0
  5733                           
  5734                           	psect	rparam
  5735  0000                     
  5736                           	psect	idloc
  5737                           
  5738                           ;Config register IDLOC0 @ 0x200000
  5739                           ;	unspecified, using default values
  5740  200000                     	org	2097152
  5741  200000  FF                 	db	255
  5742                           
  5743                           ;Config register IDLOC1 @ 0x200001
  5744                           ;	unspecified, using default values
  5745  200001                     	org	2097153
  5746  200001  FF                 	db	255
  5747                           
  5748                           ;Config register IDLOC2 @ 0x200002
  5749                           ;	unspecified, using default values
  5750  200002                     	org	2097154
  5751  200002  FF                 	db	255
  5752                           
  5753                           ;Config register IDLOC3 @ 0x200003
  5754                           ;	unspecified, using default values
  5755  200003                     	org	2097155
  5756  200003  FF                 	db	255
  5757                           
  5758                           ;Config register IDLOC4 @ 0x200004
  5759                           ;	unspecified, using default values
  5760  200004                     	org	2097156
  5761  200004  FF                 	db	255
  5762                           
  5763                           ;Config register IDLOC5 @ 0x200005
  5764                           ;	unspecified, using default values
  5765  200005                     	org	2097157
  5766  200005  FF                 	db	255
  5767                           
  5768                           ;Config register IDLOC6 @ 0x200006
  5769                           ;	unspecified, using default values
  5770  200006                     	org	2097158
  5771  200006  FF                 	db	255
  5772                           
  5773                           ;Config register IDLOC7 @ 0x200007
  5774                           ;	unspecified, using default values
  5775  200007                     	org	2097159
  5776  200007  FF                 	db	255
  5777                           
  5778                           	psect	config
  5779                           
  5780                           ; Padding undefined space
  5781  300000                     	org	3145728
  5782  300000  FF                 	db	255
  5783                           
  5784                           ;Config register CONFIG1H @ 0x300001
  5785                           ;	Oscillator Selection bits
  5786                           ;	OSC = HS, HS oscillator
  5787                           ;	Fail-Safe Clock Monitor Enable bit
  5788                           ;	FCMEN = OFF, Fail-Safe Clock Monitor disabled
  5789                           ;	Internal/External Oscillator Switchover bit
  5790                           ;	IESO = OFF, Oscillator Switchover mode disabled
  5791  300001                     	org	3145729
  5792  300001  02                 	db	2
  5793                           
  5794                           ;Config register CONFIG2L @ 0x300002
  5795                           ;	Power-up Timer Enable bit
  5796                           ;	PWRT = OFF, PWRT disabled
  5797                           ;	Brown-out Reset Enable bits
  5798                           ;	BOREN = OFF, Brown-out Reset disabled in hardware and software
  5799                           ;	Brown Out Reset Voltage bits
  5800                           ;	BORV = 0x2E, user specified literal
  5801  300002                     	org	3145730
  5802  300002  71                 	db	369
  5803                           
  5804                           ;Config register CONFIG2H @ 0x300003
  5805                           ;	Watchdog Timer Enable bit
  5806                           ;	WDT = OFF, WDT disabled (control is placed on the SWDTEN bit)
  5807                           ;	Watchdog Timer Postscale Select bits
  5808                           ;	WDTPS = 1, 1:1
  5809  300003                     	org	3145731
  5810  300003  00                 	db	0
  5811                           
  5812                           ; Padding undefined space
  5813  300004                     	org	3145732
  5814  300004  FF                 	db	255
  5815                           
  5816                           ;Config register CONFIG3H @ 0x300005
  5817                           ;	CCP2 MUX bit
  5818                           ;	CCP2MX = PORTC, CCP2 input/output is multiplexed with RC1
  5819                           ;	PORTB A/D Enable bit
  5820                           ;	PBADEN = ON, PORTB<4:0> pins are configured as analog input channels on Reset
  5821                           ;	Low-Power Timer1 Oscillator Enable bit
  5822                           ;	LPT1OSC = OFF, Timer1 configured for higher power operation
  5823                           ;	MCLR Pin Enable bit
  5824                           ;	MCLRE = ON, MCLR pin enabled; RE3 input pin disabled
  5825  300005                     	org	3145733
  5826  300005  83                 	db	131
  5827                           
  5828                           ;Config register CONFIG4L @ 0x300006
  5829                           ;	Stack Full/Underflow Reset Enable bit
  5830                           ;	STVREN = OFF, Stack full/underflow will not cause Reset
  5831                           ;	Single-Supply ICSP Enable bit
  5832                           ;	LVP = OFF, Single-Supply ICSP disabled
  5833                           ;	Extended Instruction Set Enable bit
  5834                           ;	XINST = OFF, Instruction set extension and Indexed Addressing mode disabled (Legacy mo
      +                          de)
  5835                           ;	Background Debugger Enable bit
  5836                           ;	DEBUG = OFF, Background debugger disabled, RB6 and RB7 configured as general purpose I
      +                          /O pins
  5837  300006                     	org	3145734
  5838  300006  80                 	db	128
  5839                           
  5840                           ; Padding undefined space
  5841  300007                     	org	3145735
  5842  300007  FF                 	db	255
  5843                           
  5844                           ;Config register CONFIG5L @ 0x300008
  5845                           ;	Code Protection bit
  5846                           ;	CP0 = OFF, Block 0 (000800-001FFFh) not code-protected
  5847                           ;	Code Protection bit
  5848                           ;	CP1 = OFF, Block 1 (002000-003FFFh) not code-protected
  5849                           ;	Code Protection bit
  5850                           ;	CP2 = OFF, Block 2 (004000-005FFFh) not code-protected
  5851                           ;	Code Protection bit
  5852                           ;	CP3 = OFF, Block 3 (006000-007FFFh) not code-protected
  5853  300008                     	org	3145736
  5854  300008  0F                 	db	15
  5855                           
  5856                           ;Config register CONFIG5H @ 0x300009
  5857                           ;	Boot Block Code Protection bit
  5858                           ;	CPB = OFF, Boot block (000000-0007FFh) not code-protected
  5859                           ;	Data EEPROM Code Protection bit
  5860                           ;	CPD = OFF, Data EEPROM not code-protected
  5861  300009                     	org	3145737
  5862  300009  C0                 	db	192
  5863                           
  5864                           ;Config register CONFIG6L @ 0x30000A
  5865                           ;	Write Protection bit
  5866                           ;	WRT0 = OFF, Block 0 (000800-001FFFh) not write-protected
  5867                           ;	Write Protection bit
  5868                           ;	WRT1 = OFF, Block 1 (002000-003FFFh) not write-protected
  5869                           ;	Write Protection bit
  5870                           ;	WRT2 = OFF, Block 2 (004000-005FFFh) not write-protected
  5871                           ;	Write Protection bit
  5872                           ;	WRT3 = OFF, Block 3 (006000-007FFFh) not write-protected
  5873  30000A                     	org	3145738
  5874  30000A  0F                 	db	15
  5875                           
  5876                           ;Config register CONFIG6H @ 0x30000B
  5877                           ;	Configuration Register Write Protection bit
  5878                           ;	WRTC = OFF, Configuration registers (300000-3000FFh) not write-protected
  5879                           ;	Boot Block Write Protection bit
  5880                           ;	WRTB = OFF, Boot block (000000-0007FFh) not write-protected
  5881                           ;	Data EEPROM Write Protection bit
  5882                           ;	WRTD = OFF, Data EEPROM not write-protected
  5883  30000B                     	org	3145739
  5884  30000B  E0                 	db	224
  5885                           
  5886                           ;Config register CONFIG7L @ 0x30000C
  5887                           ;	Table Read Protection bit
  5888                           ;	EBTR0 = OFF, Block 0 (000800-001FFFh) not protected from table reads executed in other
      +                           blocks
  5889                           ;	Table Read Protection bit
  5890                           ;	EBTR1 = OFF, Block 1 (002000-003FFFh) not protected from table reads executed in other
      +                           blocks
  5891                           ;	Table Read Protection bit
  5892                           ;	EBTR2 = OFF, Block 2 (004000-005FFFh) not protected from table reads executed in other
      +                           blocks
  5893                           ;	Table Read Protection bit
  5894                           ;	EBTR3 = OFF, Block 3 (006000-007FFFh) not protected from table reads executed in other
      +                           blocks
  5895  30000C                     	org	3145740
  5896  30000C  0F                 	db	15
  5897                           
  5898                           ;Config register CONFIG7H @ 0x30000D
  5899                           ;	Boot Block Table Read Protection bit
  5900                           ;	EBTRB = OFF, Boot block (000000-0007FFh) not protected from table reads executed in ot
      +                          her blocks
  5901  30000D                     	org	3145741
  5902  30000D  40                 	db	64
  5903                           tosu	equ	0xFFF
  5904                           tosh	equ	0xFFE
  5905                           tosl	equ	0xFFD
  5906                           stkptr	equ	0xFFC
  5907                           pclatu	equ	0xFFB
  5908                           pclath	equ	0xFFA
  5909                           pcl	equ	0xFF9
  5910                           tblptru	equ	0xFF8
  5911                           tblptrh	equ	0xFF7
  5912                           tblptrl	equ	0xFF6
  5913                           tablat	equ	0xFF5
  5914                           prodh	equ	0xFF4
  5915                           prodl	equ	0xFF3
  5916                           indf0	equ	0xFEF
  5917                           postinc0	equ	0xFEE
  5918                           postdec0	equ	0xFED
  5919                           preinc0	equ	0xFEC
  5920                           plusw0	equ	0xFEB
  5921                           fsr0h	equ	0xFEA
  5922                           fsr0l	equ	0xFE9
  5923                           wreg	equ	0xFE8
  5924                           indf1	equ	0xFE7
  5925                           postinc1	equ	0xFE6
  5926                           postdec1	equ	0xFE5
  5927                           preinc1	equ	0xFE4
  5928                           plusw1	equ	0xFE3
  5929                           fsr1h	equ	0xFE2
  5930                           fsr1l	equ	0xFE1
  5931                           bsr	equ	0xFE0
  5932                           indf2	equ	0xFDF
  5933                           postinc2	equ	0xFDE
  5934                           postdec2	equ	0xFDD
  5935                           preinc2	equ	0xFDC
  5936                           plusw2	equ	0xFDB
  5937                           fsr2h	equ	0xFDA
  5938                           fsr2l	equ	0xFD9
  5939                           status	equ	0xFD8

Data Sizes:
    Strings     0
    Constant    16
    Data        144
    BSS         13
    Persistent  0
    Stack       0

Auto Spaces:
    Space          Size  Autos    Used
    COMRAM          127     88     120
    BANK0           128      0     125
    BANK1           256      0       0
    BANK2           256      0       0
    BANK3           256      0       0
    BANK4           256      0       0
    BANK5           256      0       0

Pointer List with Targets:

    None.

Critical Paths under _main in COMRAM

    _main->_opcoes
    _terminandoViajem->_lcdCommand
    _terminandoViajem->_lcdData
    _ssdInit->_pinMode
    _pwmInit->_pwmFrequency
    _paradaEmergencial->_pwmFrequency
    _verso->_delay
    _pwmSet->___lwdiv
    _pwmFrequency->___aldiv
    _inverso->_delay
    _opcoes->_lcdCommand
    _opcoes->_lcdData
    _lcdInit->_lcdCommand
    _introducao->_shift
    _shift->_lcdCommand
    _iniciandoViajem->_lcdCommand
    _iniciandoViajem->_lcdData
    _lcdData->_digitalWrite
    _lcdCommand->_digitalWrite
    _Delay2ms->_Delay40us
    _cronometro->___fladd
    _ssdUpdate->_digitalWrite
    _ssdDigit->___awdiv

Critical Paths under _main in BANK0

    None.

Critical Paths under _main in BANK1

    None.

Critical Paths under _main in BANK2

    None.

Critical Paths under _main in BANK3

    None.

Critical Paths under _main in BANK4

    None.

Critical Paths under _main in BANK5

    None.

Call Graph Tables:

 ---------------------------------------------------------------------------------
 (Depth) Function   	        Calls       Base Space   Used Autos Params    Refs
 ---------------------------------------------------------------------------------
 (0) _main                                                34    34      0   69140
                                             54 COMRAM    34    34      0
                         _cronometro
                    _iniciandoViajem
                         _introducao
                         _kpDebounce
                             _kpInit
                             _kpRead
                         _lcdCommand
                            _lcdData
                            _lcdInit
                             _opcoes
                  _paradaEmergencial
                            _pwmInit
                            _ssdInit
                   _terminandoViajem
 ---------------------------------------------------------------------------------
 (1) _terminandoViajem                                    11    11      0    6794
                                              8 COMRAM    11    11      0
                              _delay
                         _lcdCommand
                            _lcdData
 ---------------------------------------------------------------------------------
 (1) _ssdInit                                              0     0      0    1352
                            _pinMode
 ---------------------------------------------------------------------------------
 (1) _pwmInit                                              0     0      0     702
                       _pwmFrequency
 ---------------------------------------------------------------------------------
 (1) _paradaEmergencial                                   16    16      0   12465
                                             16 COMRAM    16    16      0
                            _inverso
                         _lcdCommand
                            _lcdData
                       _pwmFrequency
                             _pwmSet
                              _shift
                              _verso
 ---------------------------------------------------------------------------------
 (2) _verso                                                2     2      0     184
                                              2 COMRAM     2     2      0
                              _delay
 ---------------------------------------------------------------------------------
 (2) _pwmSet                                               5     5      0     868
                                              7 COMRAM     5     5      0
                            ___lwdiv
                             ___wmul
 ---------------------------------------------------------------------------------
 (3) ___lwdiv                                              7     3      4     314
                                              0 COMRAM     7     3      4
 ---------------------------------------------------------------------------------
 (2) _pwmFrequency                                         2     0      2     702
                                             14 COMRAM     2     0      2
                            ___aldiv
 ---------------------------------------------------------------------------------
 (3) ___aldiv                                             14     6      8     452
                                              0 COMRAM    14     6      8
 ---------------------------------------------------------------------------------
 (2) _inverso                                              2     2      0     184
                                              2 COMRAM     2     2      0
                              _delay
 ---------------------------------------------------------------------------------
 (1) _opcoes                                              46    46      0    6774
                                              8 COMRAM    46    46      0
                         _lcdCommand
                            _lcdData
 ---------------------------------------------------------------------------------
 (1) _lcdInit                                              0     0      0    4851
                           _Delay2ms
                         _lcdCommand
                            _pinMode
 ---------------------------------------------------------------------------------
 (2) _pinMode                                              6     2      4    1352
                                              0 COMRAM     6     2      4
 ---------------------------------------------------------------------------------
 (1) _kpRead                                               2     0      2       0
                                              0 COMRAM     2     0      2
 ---------------------------------------------------------------------------------
 (1) _kpInit                                               0     0      0       0
 ---------------------------------------------------------------------------------
 (1) _kpDebounce                                          10    10      0     315
                                              0 COMRAM    10    10      0
 ---------------------------------------------------------------------------------
 (1) _introducao                                          28    28      0   10643
                                             12 COMRAM    28    28      0
                              _delay
                         _lcdCommand
                            _lcdData
                              _shift
 ---------------------------------------------------------------------------------
 (2) _shift                                                4     0      4    3825
                                              8 COMRAM     4     0      4
                              _delay
                         _lcdCommand
 ---------------------------------------------------------------------------------
 (2) _delay                                                2     2      0      92
                                              0 COMRAM     2     2      0
 ---------------------------------------------------------------------------------
 (1) _iniciandoViajem                                     11    11      0    6702
                                              8 COMRAM    11    11      0
                         _lcdCommand
                            _lcdData
 ---------------------------------------------------------------------------------
 (2) _lcdData                                              2     2      0    3271
                                              6 COMRAM     2     2      0
                          _Delay40us
                       _digitalWrite
 ---------------------------------------------------------------------------------
 (2) _lcdCommand                                           2     2      0    3407
                                              6 COMRAM     2     2      0
                           _Delay2ms
                          _Delay40us
                       _digitalWrite
 ---------------------------------------------------------------------------------
 (3) _Delay2ms                                             1     1      0      92
                                              1 COMRAM     1     1      0
                          _Delay40us
 ---------------------------------------------------------------------------------
 (3) _Delay40us                                            1     1      0      46
                                              0 COMRAM     1     1      0
 ---------------------------------------------------------------------------------
 (1) _cronometro                                          11     9      2   11682
                                             16 COMRAM    11     9      2
                            ___awdiv
                            ___awmod
                            ___fladd
                             ___flge
                             ___wmul
                       _digitalWrite
                           _ssdDigit
                          _ssdUpdate
 ---------------------------------------------------------------------------------
 (2) _ssdUpdate                                            2     2      0    3180
                                              6 COMRAM     2     2      0
                       _digitalWrite
 ---------------------------------------------------------------------------------
 (3) _digitalWrite                                         6     2      4    3180
                                              0 COMRAM     6     2      4
 ---------------------------------------------------------------------------------
 (2) _ssdDigit                                             2     1      1     480
                                              8 COMRAM     2     1      1
                            ___awdiv (ARG)
                            ___awmod (ARG)
 ---------------------------------------------------------------------------------
 (3) ___wmul                                               6     2      4     463
                                              0 COMRAM     6     2      4
 ---------------------------------------------------------------------------------
 (2) ___flge                                              12     4      8     486
                                              0 COMRAM    12     4      8
 ---------------------------------------------------------------------------------
 (2) ___fladd                                             16     8      8    2388
                                              0 COMRAM    16     8      8
 ---------------------------------------------------------------------------------
 (2) ___awmod                                              6     2      4     448
                                              0 COMRAM     6     2      4
 ---------------------------------------------------------------------------------
 (2) ___awdiv                                              8     4      4     604
                                              0 COMRAM     8     4      4
 ---------------------------------------------------------------------------------
 Estimated maximum stack depth 3
 ---------------------------------------------------------------------------------

 Call Graph Graphs:

 _main (ROOT)
   _cronometro
     ___awdiv
     ___awmod
     ___fladd
     ___flge
     ___wmul
     _digitalWrite
     _ssdDigit
       ___awdiv (ARG)
       ___awmod (ARG)
     _ssdUpdate
       _digitalWrite
   _iniciandoViajem
     _lcdCommand
       _Delay2ms
         _Delay40us
       _Delay40us
       _digitalWrite
     _lcdData
       _Delay40us
       _digitalWrite
   _introducao
     _delay
     _lcdCommand
     _lcdData
     _shift
       _delay
       _lcdCommand
   _kpDebounce
   _kpInit
   _kpRead
   _lcdCommand
   _lcdData
   _lcdInit
     _Delay2ms
     _lcdCommand
     _pinMode
   _opcoes
     _lcdCommand
     _lcdData
   _paradaEmergencial
     _inverso
       _delay
     _lcdCommand
     _lcdData
     _pwmFrequency
       ___aldiv
     _pwmSet
       ___lwdiv
       ___wmul
     _shift
     _verso
       _delay
   _pwmInit
     _pwmFrequency
   _ssdInit
     _pinMode
   _terminandoViajem
     _delay
     _lcdCommand
     _lcdData

 Address spaces:
Name               Size   Autos  Total    Cost      Usage
BIGRAM             5FF      0       0      17        0.0%
EEDATA             100      0       0       0        0.0%
BITBANK5           100      0       0      16        0.0%
BANK5              100      0       0      14        0.0%
BITBANK4           100      0       0      12        0.0%
BANK4              100      0       0      13        0.0%
BITBANK3           100      0       0      10        0.0%
BANK3              100      0       0      11        0.0%
BITBANK2           100      0       0       8        0.0%
BANK2              100      0       0       9        0.0%
BITBANK1           100      0       0       6        0.0%
BANK1              100      0       0       7        0.0%
BITBANK0            80      0       0       4        0.0%
BANK0               80      0      7D       5       97.7%
BITCOMRAM           7F      0       0       0        0.0%
COMRAM              7F     58      78       1       94.5%
BITSFR               0      0       0     200        0.0%
SFR                  0      0       0     200        0.0%
STACK                0      0       0       2        0.0%
NULL                 0      0       0       0        0.0%
ABS                  0      0      F5      15        0.0%
DATA                 0      0      F5       3        0.0%
CODE                 0      0       0       0        0.0%


Microchip Technology PIC18 Macro Assembler V2.32 build 20210201212658 
Symbol Table                                                                                   Sun Aug 01 11:36:35 2021

                         _i 0078                          l52 0F6C                          l86 0D1E  
              ___awdiv@sign 0006                          _v0 0075                          _v1 0074  
                        _v2 0073                          _v3 0072         ___wmul@multiplicand 0003  
                       l121 1C14                         l114 2150                         l211 16C4  
                       l124 200E                         l109 2182                         l127 1D0A  
                       l304 142C                         l240 208C                         l305 1444  
                       l225 1EB6                         l218 205E                         l306 144C  
                       l322 1DEA                         l235 1144                         l252 1B96  
                       l173 20E8                         l309 21AA                         l245 20BA  
                       l325 210E                         l261 1258                         l192 1A48  
                       l328 216A                         l602 1998                         l450 17D0  
                       l371 2134                         l355 1F0E                         l179 1E56  
                       l365 159C                         l286 21A0                         l615 1AF8  
                       l368 1FBA                         l641 18D4                         l900 07EE  
                       l636 188E                         l901 07B4                         l916 091A  
                       l908 0AD0                         l925 09EA                         l926 09D8  
                       l862 1D76                         l869 1D7E                         l899 0800  
                       _PR2 000FCB                ___awmod@sign 0006                         wreg 000FE8  
                      l3010 1676                        l3002 1658                        l2220 216C  
                      l2300 1C08                        l3020 1698                        l3012 1688  
                      l3004 165E                        l3100 1B12                        l2230 0D20  
                      l2302 1C10                        l3030 2010                        l2310 20C0  
                      l3006 1662                        l3110 1B42                        l3102 1B24  
                      l2240 0DAC                        l2232 0D3C                        l3032 2016  
                      l2320 20D6                        l2304 20BC                        l2400 0B00  
                      l3024 16AC                        l3016 168E                        l3120 1B84  
                      l3112 1B54                        l3104 1B2A                        l3200 1152  
                      l2250 0E3E                        l2242 0DC6                        l2234 0D4E  
                      l2226 2170                        l3042 2046                        l3034 2028  
                      l2322 20D8                        l2410 0B94                        l2402 0B20  
                      l3026 16BE                        l3018 1694                        l2330 16C6  
                      l3122 1B90                        l3106 1B2E                        l3130 2152  
                      l3050 1E5E                        l3210 1168                        l3202 1156  
                      l2324 2110                        l2260 0ED6                        l2252 0E5E  
                      l2244 0DE6                        l2236 0D6E                        l2500 1452  
                      l2228 2172                        l3044 2058                        l3036 202E  
                      l2316 20C4                        l3140 12D4                        l2420 0C32  
                      l2412 0BBA                        l2404 0B42                        l2340 16FA  
                      l2332 16CA                        l3116 1B5A                        l3132 2154  
                      l3124 1F66                        l3060 1E8E                        l3052 1E70  
                      l3220 11A6                        l3212 116C                        l3204 115A  
                      l2326 212C                        l2262 0EF8                        l2254 0E80  
                      l2246 0E08                        l2238 0D90                        l2510 14BC  
                      l2502 1466                        l3070 0F7A                        l2270 2136  
                      l3038 2032                        l2318 20C6                        l3150 12E0  
                      l3142 12D8                        l2430 0CC6                        l2422 0C4E  
                      l2414 0BD6                        l2406 0B5E                        l2350 173C  
                      l2342 170A                        l2334 16D8                        l3118 1B7E  
                      l3134 2158                        l3126 1FB6                        l3062 1EA0  
                      l3054 1E76                        l3230 11CE                        l3222 11AC  
                      l3214 1170                        l3206 115E                        l2600 062E  
                      l2264 0F14                        l2256 0E9C                        l2248 0E24  
                      l2520 1506                        l2512 14D0                        l2504 147A  
                      l3080 100A                        l3072 0F96                        l2280 2140  
                      l2440 1FC6                        l3160 132E                        l3152 1322  
                      l3144 12DC                        l3128 21A2                        l2432 0CD8  
                      l2424 0C60                        l2416 0BE8                        l2408 0B70  
                      l2360 178E                        l2352 1748                        l2344 170E  
                      l2336 16E8                        l3136 215A                        l3056 1E7A  
                      l3048 1E58                        l3240 11EC                        l3232 11D4  
                      l3224 11B0                        l3216 118C                        l3208 1164  
                      l2602 063E                        l2610 0668                        l2266 0F2E  
                      l2258 0EB6                        l2530 155A                        l2522 1518  
                      l2514 14D8                        l2506 148E                        l3082 101A  
                      l3074 0FB2                        l3090 10BA                        l2290 1BBA  
                      l2282 1B9A                        l2450 200A                        l2442 1FDA  
                      l3170 137A                        l3162 134A                        l2434 0CFC  
                      l2426 0C84                        l2418 0C0C                        l2370 17C0  
                      l2362 1790                        l2354 1756                        l2346 171E  
                      l2338 16EC                        l3138 215E                        l3066 1EA6  
                      l3250 1222                        l3242 11F8                        l3234 11D8  
                      l3226 11BC                        l3218 1198                        l2700 0832  
                      l2620 0698                        l2612 0678                        l2604 064E  
                      l2268 0F4E                        l2524 152C                        l2516 14EA  
                      l2508 14AA                        l3092 10F4                        l3076 0FF2  
                      l3068 0F6E                        l2276 213A                        l2292 1BCE  
                      l2284 1B9E                        l2444 1FDE                        l2436 1FBE  
                      l2460 1E0E                        l2452 1DEC                        l3180 13F2  
                      l3172 13AA                        l2428 0CAA                        l2364 179A  
                      l2356 1760                        l2348 1734                        l2380 1D2E  
                      l3260 1252                        l3252 1228                        l3236 11E4  
                      l3244 11FC                        l3228 11C0                        l2710 086E  
                      l2702 0842                        l2630 06D8                        l2622 06A6  
                      l2614 067E                        l2606 065E                        l2526 1534  
                      l2518 14FE                        l3086 1050                        l3078 1006  
                      l2278 213E                        l2294 1BE2                        l2286 1BA2  
                      l2446 1FF2                        l2438 1FC2                        l2470 1E2E  
                      l2454 1DF0                        l3190 143C                        l3182 1402  
                      l3174 13DE                        l3158 132A                        l2358 177E  
                      l2366 17A0                        l2390 1D68                        l2382 1D36  
                      l2374 1D0C                        l2542 2060                        l3094 1AFA  
                      l3270 1274                        l3254 122C                        l3246 120A  
                      l3238 11E8                        l2800 18E8                        l2720 08B4  
                      l2712 087C                        l2704 0850                        l2640 0712  
                      l2632 06DA                        l2624 06A8                        l2616 0690  
                      l2608 0660                        l2528 1546                        l2536 1562  
                      l3088 10B6                        l2296 1BE6                        l2288 1BB6  
                      l2448 2006                        l2480 1E52                        l2464 1E14  
                      l3192 1448                        l3184 141A                        l3176 13E0  
                      l3168 134E                        l2368 17B0                        l2392 1D6A  
                      l2384 1D44                        l2376 1D14                        l2560 207C  
                      l2552 206C                        l2544 2064                        l3096 1B00  
                      l3280 12A4                        l3272 1282                        l3264 1266  
                      l3248 1210                        l2810 190E                        l2802 18F0  
                      l2730 0930                        l2722 08E8                        l2714 087E  
                      l2706 085E                        l2650 0726                        l2642 0716  
                      l2626 06B8                        l2634 06E2                        l2618 0692  
                      l2490 1EE2                        l2482 1EBA                        l2298 1BF8  
                      l2474 1E42                        l2458 1E04                        l3186 1420  
                      l3178 13F0                        l3194 2198                        l2562 208E  
                      l2394 1D70                        l2386 1D4A                        l2378 1D26  
                      l2554 2070                        l2546 2068                        l3098 1B06  
                      l3274 1288                        l3266 126C                        l3258 1240  
                      l2820 1946                        l2812 1916                        l2804 18F4  
                      l2740 096C                        l2732 0940                        l2724 08EA  
                      l2716 0888                        l2708 086A                        l2660 073A  
                      l2652 072A                        l2644 071A                        l2636 06F2  
                      l2628 06C8                        l2492 1EF4                        l2484 1ECA  
                      l2476 1E4C                        l2468 1E2A                        l3188 1424  
                      l2396 0AD2                        l2900 1CBC                        l2580 20AA  
                      l2572 209A                        l2564 2092                        l2388 1D60  
                      l2556 2074                        l3284 12B8                        l3276 129A  
                      l3268 1270                        l3196 1146                        l2830 1972  
                      l2822 194C                        l2814 1928                        l2806 1902  
                      l2750 0998                        l2742 096E                        l2726 08FA  
                      l2718 088E                        l2670 074E                        l2662 073E  
                      l2654 072E                        l2646 071E                        l2638 0704  
                      l2494 1EF8                        l2486 1ECE                        l3294 1576  
                      l2398 0AEE                        l2910 1CD0                        l2902 1CC0  
                      l2574 209E                        l2566 2096                        l2590 1DDC  
                      l2582 1D82                        l2558 207A                        l3286 12CA  
                      l3278 12A0                        l3198 114E                        l2824 1962  
                      l2816 1930                        l2832 1978                        l2808 190A  
                      l2840 1A4A                        l2760 09D0                        l2744 097C  
                      l2736 0954                        l2752 099A                        l2728 090A  
                      l2680 07AC                        l2664 0742                        l2656 0732  
                      l2648 0722                        l2672 0752                        l2496 1F0A  
                      l2488 1EDE                        l2920 1CE8                        l2912 1CD4  
                      l2904 1CC4                        l2576 20A2                        l2592 20EA  
                      l2584 1DA0                        l2834 1988                        l2826 196A  
                      l2818 1938                        l2850 1A76                        l2842 1A4E  
                      l2770 0A4E                        l2746 0984                        l2738 095E  
                      l2754 09A8                        l2690 07E2                        l2682 07C2  
                      l2674 0756                        l2666 0746                        l2658 0736  
                      l2594 0612                        l2498 144E                        l2930 1D04  
                      l2922 1CEC                        l2914 1CDA                        l2906 1CC8  
                      l2578 20A8                        l2586 1DBC                        l2836 1990  
                      l2828 196C                        l2860 1AAE                        l2852 1A7E  
                      l2844 1A5C                        l2780 0A94                        l2764 09FA  
                      l2772 0A50                        l2756 09AC                        l2748 0988  
                      l2692 07EC                        l2684 07CE                        l2676 0780  
                      l2668 074A                        l2596 061E                        l2940 19CE  
                      l2932 199A                        l2924 1CF2                        l2916 1CDE  
                      l2908 1CCC                        l2588 1DC4                        l2870 1AE8  
                      l2862 1AC4                        l2854 1A90                        l2846 1A64  
                      l2790 0ABE                        l2782 0AA2                        l2774 0A60  
                      l2766 0A06                        l2758 09BA                        l2694 080E  
                      l2686 07D2                        l2678 079C                        l2598 062C  
                      l2950 19FA                        l2934 19A0                        l2926 1CF8  
                      l2918 1CE2                        l2872 1AF0                        l2864 1ACC  
                      l2856 1A98                        l2848 1A68                        l2792 0AC0  
                      l2784 0AA8                        l2776 0A70                        l2768 0A14  
                      l2696 081E                        l2688 07E0                        l2880 1810  
                      l2960 1A2A                        l2952 1A00                        l2944 19E2  
                      l2936 19B2                        l2928 1CFE                        l2866 1AD2  
                      l2858 1AA0                        l2786 0AAA                        l2778 0A90  
                      l2890 187C                        l2882 183E                        l2954 1A04  
                      l2946 19F4                        l2938 19CA                        l2970 15B6  
                      l2796 18D6                        l2868 1AD8                        l2788 0AB0  
                      l2892 18CC                        l2884 184E                        l2876 17D2  
                      l2964 1A30                        l2972 15C8                        l2798 18DA  
                      l2894 18D2                        l2886 185C                        l2878 1800  
                      l2958 1A18                        l2990 1628                        l2982 160A  
                      l2974 15DA                        l2966 159E                        l2888 186E  
                      l2992 162C                        l2984 161C                        l2976 15F2  
                      l2968 15A4                        l2898 1C94                        l2978 15F6  
                      l2996 1640                        l2988 1622                        l2998 1652  
                      u2000 1C08                        u2001 1C04                        u2010 20D6  
                      u2011 20D2                        u2020 20E8                        u2100 1D44  
                      u2021 20E4                        u2101 1D40                        u2030 16D8  
                      u2110 1D60                        u2031 16D4                        u2111 1D5C  
                      u3000 1A14                        u2200 0BD6                        u2120 0AEE  
                      u2040 16FA                        u3001 1A10                        u2201 0BD2  
                      u2121 0AEA                        u2041 16F6                        u2210 0BE8  
                      u2130 0B00                        u2050 1734                        u2211 0BE4  
                      u2131 0AFC                        u3011 15AE                        u2051 1730  
                      u3100 2042                        u2060 1756                        u3101 203E  
                      u3021 15C0                        u2061 1752                        u2070 177E  
                      u3031 15D2                        u2071 177A                        u3111 1E68  
                      u2320 1E00                        u2304 0CEE                        u2240 0C4E  
                      u2224 0BFE                        u2160 0B5E                        u2144 0B12  
                      u2400 20BA                        u2080 17B0                        u3120 1E8A  
                      u2321 1DFC                        u2305 0CEA                        u2241 0C4A  
                      u2225 0BFA                        u2161 0B5A                        u2145 0B0E  
                      u3041 15E4                        u2401 20B6                        u2081 17AC  
                      u3121 1E86                        u2410 062C                        u3130 0FB2  
                      u2330 1E26                        u3210 134A                        u2314 0D12  
                      u2250 0C60                        u2234 0C22                        u2170 0B70  
                      u2154 0B32                        u3050 1606                        u2090 1D26  
                      u2411 0628                        u3131 0FAE                        u2331 1E22  
                      u3211 1346                        u2315 0D0E                        u2251 0C5C  
                      u2235 0C1E                        u2171 0B6C                        u2155 0B2E  
                      u3051 1602                        u2091 1D22                        u2500 0780  
                      u2420 063E                        u3140 104C                        u2340 1E3E  
                      u3204 1316                        u3060 163C                        u3300 118C  
                      u2501 077C                        u2421 063A                        u3141 1048  
                      u2341 1E3A                        u3205 1312                        u3061 1638  
                      u3301 1188                        u2510 0798                        u2430 064E  
                      u2350 1ECA                        u3150 10B6                        u3230 137A  
                      u3070 1672                        u3310 11A6                        u2511 0792  
                      u2431 064A                        u2351 1EC6                        u3151 10B2  
                      u3231 1376                        u3071 166E                        u3311 11A2  
                      u2600 087C                        u2520 079A                        u2440 0690  
                      u2360 1EDE                        u3160 10F4                        u3224 1360  
                      u2280 0CC6                        u2264 0C76                        u2184 0B86  
                      u3080 16A8                        u3320 11CE                        u2601 0878  
                      u2441 068C                        u2361 1EDA                        u3161 10F0  
                      u3225 135C                        u2281 0CC2                        u2265 0C72  
                      u2185 0B82                        u3081 16A4                        u3321 11CA  
                      u2610 08B4                        u2530 07C2                        u2450 06A6  
                      u2370 1EF4                        u2290 0CD8                        u2274 0C9A  
                      u2194 0BAA                        u3330 120A                        u2611 08B0  
                      u2531 07BE                        u2451 06A2                        u2371 1EF0  
                      u3091 2020                        u2291 0CD4                        u2275 0C96  
                      u2195 0BA6                        u3171 1B1C                        u3331 1206  
                      u2700 09D0                        u2620 08FA                        u2540 07E0  
                      u2460 06B8                        u2380 1F0A                        u1900 0E9C  
                      u1820 0DAC                        u1804 0D60                        u3260 13F0  
                      u3244 1398                        u3180 1B3E                        u2701 09CC  
                      u2621 08F6                        u2541 07DC                        u2461 06B4  
                      u2381 1F06                        u1901 0E98                        u1821 0DA8  
                      u1805 0D5C                        u3261 13EC                        u3245 1392  
                      u3181 1B3A                        u3341 121A                        u2710 09E6  
                      u2630 0930                        u2550 0800                        u2470 06C8  
                      u1910 0EB6                        u1830 0DC6                        u1814 0D80  
                      u3270 1402                        u3254 13C8                        u2390 208C  
                      u3350 123C                        u2711 09E2                        u2631 092C  
                      u2551 07FC                        u2471 06C4                        u1911 0EB2  
                      u1831 0DC2                        u1815 0D7C                        u3271 13FE  
                      u3255 13C2                        u2391 2088                        u3351 1238  
                      u2800 18E8                        u2720 09FA                        u2640 0940  
                      u2560 080E                        u2480 0704                        u3280 141A  
                      u3360 1266                        u2801 18E4                        u2721 09F6  
                      u2641 093C                        u2561 080A                        u2481 0700  
                      u3281 1416                        u3361 1262                        u2810 1902  
                      u2730 0A14                        u2650 096C                        u2570 081E  
                      u2490 0712                        u1770 2182                        u3290 143C  
                      u3194 12F6                        u3370 1282                        u2811 18FE  
                      u2731 0A10                        u2651 0968                        u2571 081A  
                      u2491 070E                        u1771 217E                        u3291 1438  
                      u3195 12F2                        u3371 127E                        u2820 1928  
                      u2900 1AC4                        u2740 0A4E                        u2660 097C  
                      u2580 0850                        u1940 0F14                        u1924 0EC8  
                      u1860 0E24                        u1844 0DD8                        u1780 0D3C  
                      u2821 1924                        u2901 1AC0                        u2741 0A4A  
                      u2661 0978                        u2581 084C                        u1941 0F10  
                      u1925 0EC4                        u1861 0E20                        u1845 0DD4  
                      u1781 0D38                        u3381 1292                        u2830 1946  
                      u2910 1AE8                        u2750 0A60                        u2670 0998  
                      u2590 085E                        u1950 0F2E                        u1934 0EE8  
                      u1870 0E3E                        u1854 0DF8                        u1790 0D4E  
                      u3390 12B4                        u2831 1942                        u2911 1AE4  
                      u2751 0A5C                        u2671 0994                        u2591 085A  
                      u1951 0F2A                        u1935 0EE4                        u1871 0E3A  
                      u1855 0DF4                        u1791 0D4A                        u3391 12B0  
                      u2840 1962                        u2760 0A70                        u2680 09A8  
                      u2920 1800                        u2841 195E                        u2761 0A6C  
                      u2681 09A4                        u2921 17FC                        u2850 1988  
                      u2770 0A90                        u2690 09BA                        u2930 183E  
                      u2851 1984                        u2771 0A8C                        u2691 09B6  
                      u2931 183A                        u2860 1A5C                        u2780 0AA2  
                      u2940 185C                        u1964 0F40                        u1884 0E50  
                      u1980 2150                        u2861 1A58                        u2781 0A9E  
                      u2941 1858                        u1965 0F3C                        u1885 0E4C  
                      u1981 214C                        u2870 1A76                        u2790 0ABE  
                      u2950 187C                        u1974 0F60                        u1894 0E70  
                      u1990 1BF8                        u2871 1A72                        u2791 0ABA  
                      u2951 1878                        u1975 0F5C                        u1895 0E6C  
                      u1991 1BF4                        u2880 1A90                        u2960 18CC  
                      u2881 1A8C                        u2961 18C8                        u2890 1AAE  
                      u2891 1AAA                        u2971 19AA                        u2981 19BC  
                      u2990 19DE                        u2991 19DA                        _main 1146  
                      indf2 000FDF                        fsr1l 000FE1                        fsr2l 000FD9  
                      prodh 000FF4                        prodl 000FF3                        start 0000  
          _terminandoViajem 1E58                ___param_bank 000000              pwmSet@porcento 000A  
           __end_of___aldiv 17D2             __end_of___fladd 0AD2                       ?_main 0001  
           __end_of___awdiv 199A             __end_of___awmod 1AFA             ___awdiv@divisor 0003  
                     _T2CON 000FCA             __end_of___lwdiv 1D80             ___awdiv@counter 0005  
                     _PORTA 000F80                       _PORTB 000F81                       _PORTC 000F82  
                     _PORTD 000F83                       _PORTE 000F84                       _TRISA 000F92  
                     _TRISB 000F93                       _TRISC 000F94                       _TRISD 000F95  
                     _TRISE 000F96             __end_of_lcdData 2010             __end_of_lcdInit 1D0C  
                     _delay 20BC      paradaEmergencial@F2468 00A0                       _shift 1DEC  
           __end_of_pinMode 0D20                       _valor 0070                       _verso 2060  
           __end_of_inverso 20BC                       tablat 000FF5             __end_of_ssdInit 1FBC  
           __end_of_pwmInit 216C                       plusw1 000FE3                       plusw2 000FDB  
                     status 000FD8            __end_of_Delay2ms 2152        __end_of_digitalWrite 0F6E  
           __initialization 1F10                __end_of_main 12D4          __size_of_Delay40us 0018  
                    ??_main 0037               __activetblptr 000002                      ?_delay 0001  
                    _CCPR1L 000FBE                      ?_shift 0009            ___awdiv@dividend 0001  
                    ?_verso 0001              cronometro@cont 001A              cronometro@temp 0011  
                    ___flge 17D2                   ??___aldiv 0009                   ??___fladd 0009  
                    ___wmul 2110                   ??___awdiv 0005                   ??___awmod 0005  
                 ??___lwdiv 0005                      _kpInit 21A2                      _kpRead 2198  
                    delay@i 0001                      delay@j 0002                      clear_0 1F56  
          ___awdiv@quotient 0007             ___awmod@divisor 0003                      _opcoes 159E  
                 ??_lcdData 0007                      isa$std 000001                   ??_lcdInit 0009  
                    _pwmSet 1D80             ___awmod@counter 0005            __end_of_ssdDigit 1F10  
              __pdataCOMRAM 0059                   ??_pinMode 0005                   ??_inverso 0003  
       iniciandoViajem@text 0009                __mediumconst 0000                      shift@t 0009  
                    tblptrh 000FF7                      tblptrl 000FF6                      tblptru 000FF8  
                 ??_ssdInit 0007                   ??_pwmInit 0011                      verso@k 0003  
                    verso@x 0004           __end_of_Delay40us 2184                  ___flge@ff1 0001  
                ___flge@ff2 0005                  __accesstop 0080     __end_of__initialization 1F5C  
             ___rparam_used 000001                 pinMode@type 0003              __pcstackCOMRAM 0001  
              __pidataBANK0 1C16               __end_of_delay 20EA               __end_of_shift 1E58  
             __end_of_verso 208E    __end_of_terminandoViajem 1EB8                   ?_Delay2ms 0001  
                   ??_delay 0001                     ??_shift 000D                     ??_verso 0003  
     __size_of_digitalWrite 024E                     ?___flge 0001                  _lcdCommand 1B98  
                   ?___wmul 0001                     ?_kpInit 0001                     ?_kpRead 0001  
                   _CCP1CON 000FBD             introducao@F2437 00DB             introducao@F2439 00B0  
                _kpDebounce 12D4                     ?_opcoes 0001                     ?_pwmSet 0001  
  __size_of_iniciandoViajem 0050          __size_of_ssdUpdate 0150                  ??_Delay2ms 0002  
               opcoes@F2442 00C0                 opcoes@F2444 0059                 opcoes@F2446 0063  
               opcoes@F2448 00CF                _digitalWrite 0D20             introducao@text2 000D  
           cronometro@tempo 0016                 opcoes@text1 0024                 opcoes@text2 002E  
               opcoes@text3 0018                  _cronometro 0F6E                     __Hparam 0000  
                   __Lparam 0000                   ?_ssdDigit 0009             kpDebounce@old_D 0006  
           kpDebounce@tempo 0077                     ___aldiv 16C6             __size_of___flge 0104  
                   ___fladd 0612                     ___awdiv 18D6                     ___awmod 1A4A  
           __size_of___wmul 0026                     ___lwdiv 1D0C                __psmallconst 0600  
           __size_of_kpInit 000A             __size_of_kpRead 000A                 ssdDigit@val 000A  
               ssdDigit@pos 0009                     __pcinit 1F10                     _lcdData 1FBC  
                   __ramtop 0600                     _lcdInit 1C94             __size_of_opcoes 0128  
                   __ptext0 1146                     __ptext1 1E58                     __ptext2 1F66  
                   __ptext3 2152                     __ptext4 1AFA                     __ptext5 2060  
                   __ptext6 1D80                     __ptext7 1D0C                     __ptext8 20EA  
                   __ptext9 16C6             __size_of_pwmSet 006C                     _display 0076  
                   _pinMode 0AD2            ___awmod@dividend 0001                     _inverso 208E  
          ___aldiv@dividend 0001                     _ssdInit 1F66        iniciandoViajem@F2451 00F2  
                   _pwmInit 2152                   Delay2ms@i 0002                     main@fim 0047  
       kpDebounce@valorNovo 006E                  _introducao 199A        end_of_initialization 1F5C  
             __Lmediumconst 0000               ?_pwmFrequency 000F           __end_of_ssdUpdate 159E  
                   shift@op 000B                  ??_ssdDigit 000A            ___aldiv@quotient 000B  
                   postdec1 000FE5                 ?_lcdCommand 0001                     postinc0 000FEE  
               ?_kpDebounce 0001                   _PORTEbits 000F84              _valor@ssd$F439 0601  
               ___fladd@grs 0010        terminandoViajem@text 0009           ??_iniciandoViajem 0009  
            ??_pwmFrequency 0011                   _Delay40us 216C                 ?_cronometro 0011  
            __end_of___flge 18D6              __end_of___wmul 2136               __pidataCOMRAM 2184  
            __end_of_kpInit 21AC              __end_of_kpRead 21A2      __end_of_valor@ssd$F439 0611  
            __end_of_opcoes 16C6              __end_of_pwmSet 1DEC         start_initialization 1F10  
         ?_terminandoViajem 0001       paradaEmergencial@text 0011           __size_of_Delay2ms 001C  
        ??_terminandoViajem 0009                 ?_introducao 0001         __size_of_lcdCommand 007E  
       __size_of_kpDebounce 017A                  ?_Delay40us 0001               cronometro@aux 0014  
                  ??___flge 0009                    ??___wmul 0005                    ??_kpInit 0001  
                  ??_kpRead 0003                 __pdataBANK0 0080                    ??_opcoes 0009  
                  ??_pwmSet 0008                   ___fladd@a 0005                   ___fladd@b 0001  
               __pbssCOMRAM 006C                  pinMode@pin 0001         __size_of_cronometro 01D8  
          ___lwdiv@dividend 0001                    ?___aldiv 0001                    ?___fladd 0001  
                  ?___awdiv 0001                    ?___awmod 0001           __size_of_ssdDigit 0058  
                  ?___lwdiv 0001         __size_of_introducao 00B0                    ?_lcdData 0001  
                  ?_lcdInit 0001              introducao@text 001D        __end_of_pwmFrequency 2110  
             lcdCommand@cmd 0008                 __smallconst 0600                  opcoes@text 0009  
                  ?_pinMode 0001                    ?_inverso 0001                    ?_ssdInit 0001  
                  ?_pwmInit 0001            ___lwdiv@quotient 0005              __size_of_delay 002E  
            __size_of_shift 006C              __size_of_verso 002E            pwmFrequency@freq 000F  
           ___aldiv@divisor 0005             ___aldiv@counter 0009                 ??_Delay40us 0001  
            ___wmul@product 0005                ??_lcdCommand 0007                   main@F2472 0090  
                 main@F2474 0080                   _ssdUpdate 144E                ??_kpDebounce 0001  
           _iniciandoViajem 2010           ___wmul@multiplier 0001             lcdCommand@old_D 0007  
     kpDebounce@valorAntigo 006C                    _Delay2ms 2136                   main@tecla 0057  
         _paradaEmergencial 1AFA          ?_paradaEmergencial 0001                   copy_data0 1F24  
                 copy_data1 1F44          __end_of_lcdCommand 1C16                lcdData@old_D 0008  
              lcdData@valor 0007         ??_paradaEmergencial 0011          __end_of_kpDebounce 144E  
              ??_cronometro 0013                    __Hrparam 0000                    __Lrparam 0000  
                ?_ssdUpdate 0001            __size_of___aldiv 010C            __size_of___fladd 04C0  
          __size_of___awdiv 00C4            __size_of___awmod 00B0            __size_of___lwdiv 0074  
          __size_of_lcdData 0054   __end_of_paradaEmergencial 1B98            __size_of_lcdInit 0078  
          __size_of_pinMode 024E             ___lwdiv@divisor 0003            __size_of_inverso 002E  
           ___lwdiv@counter 0007          __end_of_cronometro 1146                    __ptext10 208E  
                  __ptext11 159E                    __ptext20 2010                    __ptext12 1C94  
                  __ptext21 1FBC                    __ptext13 0AD2                    __ptext30 17D2  
                  __ptext22 1B98                    __ptext14 2198                    __ptext31 0612  
                  __ptext23 2136                    __ptext15 21A2                    __ptext32 1A4A  
                  __ptext24 216C                    __ptext16 12D4                    __ptext33 18D6  
                  __ptext25 0F6E                    __ptext17 199A                    __ptext26 144E  
                  __ptext18 1DEC                    __ptext27 0D20                    __ptext19 20BC  
                  __ptext28 1EB8                    __ptext29 2110            __size_of_ssdInit 0056  
          __size_of_pwmInit 001A                ??_introducao 000D               __size_of_main 018E  
 __size_of_terminandoViajem 0060                  Delay40us@i 0001     __end_of_iniciandoViajem 2060  
                  _ssdDigit 1EB8                    isa$xinst 000000       __size_of_pwmFrequency 0026  
                 pwmSet@val 000B                    main@text 0037          __end_of_introducao 1A4A  
             ?_digitalWrite 0001                    inverso@k 0003                    inverso@x 0004  
         digitalWrite@value 0003                _pwmFrequency 20EA                 ??_ssdUpdate 0007  
__size_of_paradaEmergencial 009E                 kpDebounce@i 000A                 kpDebounce@j 0009  
               kpDebounce@k 0007              ??_digitalWrite 0005                ___aldiv@sign 000A  
     terminandoViajem@F2454 00E7               ___fladd@signs 000D             digitalWrite@pin 0001  
              ___fladd@aexp 000E                ___fladd@bexp 000F            ?_iniciandoViajem 0001  
